(dp0
L4212736L
(F1.0
L4212741L
tp1
sL4224000L
(F14.222222222222221
L4224008L
tp2
sL4214786L
(F1.1487179487179486
L4214802L
tp3
sL4220932L
(F2.0
L4220941L
tp4
sL4222982L
(F1.0
L4223023L
tp5
sL4214444L
(F0.9318772750910034
L4214451L
tp6
sL4208650L
(F7.111111111111111
L4208692L
tp7
sL4220941L
(F2.0
L4220947L
tp8
sL4200464L
(F1.0
L4200606L
tp9
sL4214802L
(F1.0044843049327352
L4214813L
tp10
sL4206611L
(F5.614774595321093
L4206618L
tp11
sL4202521L
(F2.907026259758694
L4202541L
tp12
sL4206618L
(F1.9692307692307693
L4206628L
tp13
sL4216672L
(F7.693386350037333
L4216687L
tp14
sL4204573L
(F0.6949988235255129
L4204581L
tp15
sL4216862L
(F1.5682167018196362
L4216928L
tp16
sL4220960L
(F1.0
L4220971L
tp17
sL4217696L
(F1.0
L4217748L
tp18
sL4206628L
(F6.390015600624025
L4206643L
tp19
sL4204581L
(F1.3899976470510258
L4204592L
tp20
sL4203648L
(F1.1393379388876694
L4203653L
tp21
sL4220971L
(F2.0
L4220991L
tp22
sL4202541L
(F1.453513129879347
L4202591L
tp23
sL4214831L
(F1.1479820627802688
L4214838L
tp24
sL4204592L
(F2.7799952941020516
L4204635L
tp25
sL4206643L
(F3.552471812662619
L4206661L
tp26
sL4214838L
(F2.2959641255605376
L4214846L
tp27
sL4216842L
(F5.760755456212171
L4216847L
tp28
sL4214846L
(F4.591928251121075
L4214858L
tp29
sL4220991L
(F4.0
L4221002L
tp30
sL4208704L
(F1.0
L4208712L
tp31
sL4199776L
(F1.3333333333333333
L4199776L
tp32
sL4223043L
(F1.0
L4223096L
tp33
sL4206661L
(F0.8
L4206682L
tp34
sL4212809L
(F4.0
L4212829L
tp35
sL4214858L
(F9.18385650224215
L4214872L
tp36
sL4223330L
(F1.377646044859263
L4223336L
tp37
sL4208720L
(F1.0
L4208728L
tp38
sL4222648L
(F2.0
L4222660L
tp39
sL4224014L
(F0.6164265021257384
L4224022L
tp40
sL4213433L
(F2.0
L4213467L
tp41
sL4214872L
(F1.6423416198877305
L4214877L
tp42
sL4202852L
(F2.907026259758694
L4202872L
tp43
sL4206682L
(F1.6
L4206687L
tp44
sL4204635L
(F1.3899976470510258
L4204670L
tp45
sL4212829L
(F2.0
L4212868L
tp46
sL4206687L
(F2.3696846977147814
L4206702L
tp47
sL4208736L
(F1.0
L4208758L
tp48
sL4199440L
(F2.0
L4199445L
tp49
sL4221029L
(F4.0
L4221052L
tp50
sL4214892L
(F0.9375143053330282
L4214904L
tp51
sL4206702L
(F5.927574082239483
L4206712L
tp52
sL4208424L
(F2.6666666666666665
L4208436L
tp53
sL4223336L
(F2.755292089718526
L4223343L
tp54
sL4202611L
(F1.453513129879347
L4202649L
tp55
sL4208758L
(F2.0
L4208767L
tp56
sL4214121L
(F256.0
L4214127L
tp57
sL4206712L
(F0.8
L4206723L
tp58
sL4221052L
(F4.0
L4221058L
tp59
sL4204670L
(F2.7799952941020516
L4204690L
tp60
sL4208767L
(F4.0
L4208777L
tp61
sL4219008L
(F1.0
L4219020L
tp62
sL4206723L
(F1.6
L4206738L
tp63
sL4212868L
(F4.0
L4212888L
tp64
sL4223110L
(F1.1428571428571428
L4223123L
tp65
sL4219585L
(F1.8181818181818181
L4219677L
tp66
sL4208777L
(F1.6
L4208793L
tp67
sL4222463L
(F4.0
L4222481L
tp68
sL4214928L
(F15.43580080753701
L4214945L
tp69
sL4204690L
(F1.3899976470510258
L4204720L
tp70
sL4212176L
(F4.0
L4212220L
tp71
sL4212888L
(F2.0
L4212927L
tp72
sL4202649L
(F2.907026259758694
L4202669L
tp73
sL4223343L
(F1.1021168358874105
L4223356L
tp74
sL4200606L
(F0.2
L4200642L
tp75
sL4206752L
(F5.814052519517388
L4206767L
tp76
sL4223137L
(F4.0
L4223161L
tp77
sL4212572L
(F0.8
L4212588L
tp78
sL4199424L
(F1.0
L4199440L
tp79
sL4221095L
(F4.0
L4221117L
tp80
sL4203584L
(F3.2
L4203597L
tp81
sL4214953L
(F3.1767769098664895
L4214962L
tp82
sL4202669L
(F1.453513129879347
L4202723L
tp83
sL4206767L
(F1.470898812196774
L4206780L
tp84
sL4204720L
(F2.7799952941020516
L4204739L
tp85
sL4201160L
(F1.9692307692307693
L4201200L
tp86
sL4214962L
(F4.500922255798438
L4214973L
tp87
sL4206780L
(F2.941797624393548
L4206793L
tp88
sL4214973L
(F9.001844511596875
L4214976L
tp89
sL4212927L
(F4.0
L4212947L
tp90
sL4223168L
(F8.0
L4223196L
tp91
sL4200642L
(F0.4
L4200651L
tp92
sL4204739L
(F5.559990588204103
L4204779L
tp93
sL4221024L
(F2.0
L4221029L
tp94
sL4206793L
(F5.883595248787096
L4206808L
tp95
sL4200651L
(F0.8
L4200658L
tp96
sL4221986L
(F32.0
L4222001L
tp97
sL4214992L
(F0.2805180794738268
L4214998L
tp98
sL4200658L
(F1.6
L4200669L
tp99
sL4212947L
(F2.0
L4213010L
tp100
sL4214998L
(F0.2618310756290726
L4215062L
tp101
sL4221143L
(F4.0
L4221149L
tp102
sL4206808L
(F1.1562455892731123
L4206813L
tp103
sL4212772L
(F2.0
L4212809L
tp104
sL4200669L
(F3.2
L4200674L
tp105
sL4219104L
(F1.0
L4219122L
tp106
sL10333904L
(F1.0
L10333908L
tp107
sL4200674L
(F6.4
L4200683L
tp108
sL4202723L
(F2.907026259758694
L4202743L
tp109
sL4204241L
(F2.278675877775339
L4204261L
tp110
sL4202216L
(F1.3298701298701299
L4202264L
tp111
sL4200683L
(F12.8
L4200694L
tp112
sL4208878L
(F5.333333333333333
L4208904L
tp113
sL4204784L
(F2.225935738061273
L4204791L
tp114
sL4217073L
(F25.09146722911418
L4217075L
tp115
sL4199904L
(F2.0
L4199904L
tp116
sL4200694L
(F25.6
L4200717L
tp117
sL4202743L
(F1.453513129879347
L4202783L
tp118
sL4217080L
(F6.900021104195975
L4217087L
tp119
sL4201200L
(F0.9922480620155039
L4201227L
tp120
sL4217087L
(F3.4500105520979876
L4217101L
tp121
sL4204800L
(F5.3194805194805195
L4204822L
tp122
sL4215168L
(F15.43580080753701
L4215175L
tp123
sL4201857L
(F0.6649350649350649
L4201898L
tp124
sL4223023L
(F2.0
L4223043L
tp125
sL4214976L
(F1.878314417203033
L4214987L
tp126
sL4217101L
(F0.9261760175967629
L4217111L
tp127
sL4221198L
(F2.0
L4221203L
tp128
sL4200720L
(F1.6
L4200731L
tp129
sL4213010L
(F4.0
L4213030L
tp130
sL4221203L
(F2.0
L4221208L
tp131
sL4215062L
(F0.2046703000482447
L4215085L
tp132
sL4217111L
(F28.0
L4217138L
tp133
sL4200731L
(F3.2
L4200733L
tp134
sL4213905L
(F2.0
L4213910L
tp135
sL4200733L
(F6.4
L4200738L
tp136
sL4202783L
(F2.907026259758694
L4202803L
tp137
sL4204832L
(F3.367036580353473
L4204847L
tp138
sL4213808L
(F1.0
L4213833L
tp139
sL4200738L
(F12.8
L4200747L
tp140
sL4206885L
(F1.0
L4206887L
tp141
sL4213030L
(F2.0
L4213057L
tp142
sL4206887L
(F2.0
L4206897L
tp143
sL4223273L
(F2.0
L4223278L
tp144
sL4200747L
(F25.6
L4200757L
tp145
sL4215085L
(F0.4093406000964894
L4215103L
tp146
sL4204848L
(F1.0887689962661615
L4204900L
tp147
sL4206897L
(F4.0
L4206905L
tp148
sL4217138L
(F0.4093406000964894
L4217143L
tp149
sL4202803L
(F1.453513129879347
L4202852L
tp150
sL4219168L
(F1.0
L4219190L
tp151
sL4200841L
(F6.4
L4200852L
tp152
sL4200760L
(F6.4
L4200767L
tp153
sL4200767L
(F12.8
L4200778L
tp154
sL4215104L
(F15.43580080753701
L4215109L
tp155
sL4220640L
(F1.0
L4220756L
tp156
sL4215109L
(F1.4401888640530427
L4215120L
tp157
sL4213064L
(F2.0
L4213073L
tp158
sL4200778L
(F25.6
L4200793L
tp159
sL4215120L
(F0.9039020814779202
L4215131L
tp160
sL4214160L
(F1.0
L4214301L
tp161
sL4208979L
(F1.0
L4209006L
tp162
sL4200793L
(F12.8
L4200805L
tp163
sL4215131L
(F1.8078041629558403
L4215139L
tp164
sL4213088L
(F1.0
L4213107L
tp165
sL10333584L
(F1.0
L10333588L
tp166
sL4206946L
(F1.0
L4206948L
tp167
sL4206948L
(F2.0
L4206958L
tp168
sL4200805L
(F12.8
L4200815L
tp169
sL4204904L
(F2.7600496957190086
L4204914L
tp170
sL4206958L
(F4.0
L4206969L
tp171
sL4200815L
(F12.8
L4200841L
tp172
sL4221296L
(F1.0
L4221345L
tp173
sL4214502L
(F61.74320323014804
L4214516L
tp174
sL4204914L
(F5.520099391438017
L4204929L
tp175
sL4213107L
(F2.0
L4213267L
tp176
sL4202872L
(F1.453513129879347
L4202911L
tp177
sL4212116L
(F2.0
L4212127L
tp178
sL4223356L
(F0.42389109072592707
L4223394L
tp179
sL4206976L
(F1.0
L4206985L
tp180
sL4204929L
(F1.8392391697099177
L4204933L
tp181
sL4204933L
(F1.4036936488302731
L4204950L
tp182
sL4205633L
(F1.2487328988986701
L4205641L
tp183
sL4206985L
(F2.0
L4207002L
tp184
sL4219274L
(F1.0
L4219358L
tp185
sL4215184L
(F15.43580080753701
L4215191L
tp186
sL4214820L
(F4.017937219730941
L4214831L
tp187
sL4200852L
(F12.8
L4200919L
tp188
sL4204950L
(F1.1679472128350157
L4204960L
tp189
sL4207002L
(F1.0
L4207004L
tp190
sL4205295L
(F2.2831661092530657
L4205296L
tp191
sL4217244L
(F2.0
L4217253L
tp192
sL4202911L
(F2.907026259758694
L4202931L
tp193
sL4207008L
(F1.0
L4207018L
tp194
sL4205296L
(F0.7267565649396736
L4205340L
tp195
sL4223394L
(F0.8477821814518541
L4223412L
tp196
sL4203931L
(F2.278675877775339
L4203951L
tp197
sL4204964L
(F0.7373526983676046
L4204973L
tp198
sL4217253L
(F4.0
L4217280L
tp199
sL4224412L
(F2.0
L4224415L
tp200
sL4207018L
(F2.0
L4207028L
tp201
sL4204973L
(F1.4747053967352093
L4204977L
tp202
sL4215216L
(F15.43580080753701
L4215223L
tp203
sL4204977L
(F2.9494107934704186
L4204985L
tp204
sL4202931L
(F1.453513129879347
L4202957L
tp205
sL4207028L
(F4.0
L4207045L
tp206
sL4205641L
(F2.2063021815243737
L4205649L
tp207
sL4204985L
(F5.898821586940837
L4204990L
tp208
sL4224415L
(F1.0
L4224422L
tp209
sL4207344L
(F1.0
L4207354L
tp210
sL4204990L
(F0.5198009160548285
L4205005L
tp211
sL4215232L
(F15.43580080753701
L4215243L
tp212
sL4204960L
(F0.5387341564039725
L4204964L
tp213
sL4223430L
(F4.0
L4223439L
tp214
sL4207048L
(F1.3333333333333333
L4207053L
tp215
sL4215243L
(F30.87160161507402
L4215254L
tp216
sL4221120L
(F2.0
L4221143L
tp217
sL4205005L
(F1.7100954163264765
L4205010L
tp218
sL4223439L
(F2.6666666666666665
L4223456L
tp219
sL4202960L
(F0.31056183182955494
L4202974L
tp220
sL4205010L
(F3.420190832652953
L4205024L
tp221
sL4215254L
(F61.74320323014804
L4215259L
tp222
sL4200919L
(F3.2
L4200945L
tp223
sL4221401L
(F2.0
L4221421L
tp224
sL4215259L
(F123.48640646029608
L4215268L
tp225
sL4202974L
(F1.1848423488573907
L4202979L
tp226
sL4207071L
(F1.0
L4207079L
tp227
sL4205024L
(F0.4124030519940219
L4205037L
tp228
sL4224080L
(F4.22703818369453
L4224085L
tp229
sL4202979L
(F1.6835182901767365
L4202991L
tp230
sL4215268L
(F61.74320323014804
L4215281L
tp231
sL4216230L
(F10.412928999455238
L4216241L
tp232
sL4209126L
(F2.0
L4209146L
tp233
sL4207079L
(F2.0
L4207084L
tp234
sL4217984L
(F1.0
L4217984L
tp235
sL4207084L
(F4.0
L4207089L
tp236
sL4221421L
(F1.0
L4221454L
tp237
sL4202991L
(F1.2547097564711287
L4203016L
tp238
sL4205040L
(F4.451871476122546
L4205055L
tp239
sL4207089L
(F8.0
L4207101L
tp240
sL4216416L
(F3.1364334036392725
L4216426L
tp241
sL4200952L
(F0.4
L4200982L
tp242
sL4223481L
(F1.7777777777777777
L4223505L
tp243
sL4209146L
(F1.0
L4209201L
tp244
sL4207101L
(F16.0
L4207105L
tp245
sL4205055L
(F5.806767980086195
L4205058L
tp246
sL4207105L
(F32.0
L4207115L
tp247
sL4205058L
(F1.06513133636106
L4205071L
tp248
sL4214529L
(F246.97281292059216
L4214537L
tp249
sL4203016L
(F2.5094195129422574
L4203035L
tp250
sL4224428L
(F1.0
L4224437L
tp251
sL4217354L
(F2.0
L4217444L
tp252
sL4221454L
(F2.0
L4221467L
tp253
sL4205071L
(F5.018839025884515
L4205090L
tp254
sL4207120L
(F1.5238095238095237
L4207123L
tp255
sL4223505L
(F3.5555555555555554
L4223527L
tp256
sL4213267L
(F1.0
L4213302L
tp257
sL4200982L
(F0.4
L4200993L
tp258
sL4207128L
(F4.0
L4207135L
tp259
sL4215323L
(F1.991934599698877
L4215328L
tp260
sL4207135L
(F0.8
L4207148L
tp261
sL4215328L
(F1.9525640725520699
L4215342L
tp262
sL4200993L
(F0.4
L4201016L
tp263
sL4205090L
(F1.9844961240310077
L4205116L
tp264
sL4203044L
(F2.860210360930476
L4203048L
tp265
sL4223527L
(F7.111111111111111
L4223533L
tp266
sL4203048L
(F1.1129678690306366
L4203078L
tp267
sL4217607L
(F2.0
L4217612L
tp268
sL4207148L
(F1.6
L4207156L
tp269
sL4223533L
(F3.5555555555555554
L4223594L
tp270
sL4214877L
(F3.284683239775461
L4214880L
tp271
sL4215344L
(F15.43580080753701
L4215351L
tp272
sL4209201L
(F2.0
L4209221L
tp273
sL4207156L
(F3.2
L4207159L
tp274
sL4213302L
(F2.0
L4213322L
tp275
sL4207159L
(F0.8888888888888888
L4207163L
tp276
sL4201016L
(F0.8
L4201029L
tp277
sL4223412L
(F2.0
L4223430L
tp278
sL4202591L
(F2.907026259758694
L4202611L
tp279
sL4205116L
(F3.9689922480620154
L4205140L
tp280
sL4221501L
(F8.0
L4221521L
tp281
sL4215358L
(F61.74320323014804
L4215367L
tp282
sL4207168L
(F16.0
L4207178L
tp283
sL4214880L
(F1.6423416198877305
L4214892L
tp284
sL4201029L
(F1.6
L4201038L
tp285
sL4203078L
(F2.225935738061273
L4203120L
tp286
sL4215367L
(F3.3490925550088337
L4215375L
tp287
sL4213322L
(F1.0
L4213346L
tp288
sL4201038L
(F3.2
L4201055L
tp289
sL4207184L
(F1.0
L4207193L
tp290
sL4221521L
(F4.0
L4221580L
tp291
sL4217584L
(F8.0
L4217607L
tp292
sL4205140L
(F7.937984496124031
L4205156L
tp293
sL4207193L
(F2.0
L4207195L
tp294
sL4204531L
(F1.3899976470510258
L4204573L
tp295
sL4215387L
(F30.87160161507402
L4215398L
tp296
sL4201055L
(F0.28444444444444444
L4201076L
tp297
sL4207200L
(F8.0
L4207227L
tp298
sL4215568L
(F1.3111882815291176
L4215577L
tp299
sL4213346L
(F2.0
L4213426L
tp300
sL4205156L
(F1.7762359063313096
L4205177L
tp301
sL4212368L
(F2.0
L4212402L
tp302
sL4215398L
(F61.74320323014804
L4215403L
tp303
sL4223594L
(F7.111111111111111
L4223618L
tp304
sL4215403L
(F123.48640646029608
L4215412L
tp305
sL4203120L
(F4.451871476122546
L4203143L
tp306
sL4201076L
(F0.2694736842105263
L4201086L
tp307
sL4217461L
(F8.0
L4217479L
tp308
sL4203869L
(F2.278675877775339
L4203889L
tp309
sL4205177L
(F3.552471812662619
L4205188L
tp310
sL4207227L
(F0.7272727272727273
L4207231L
tp311
sL4209277L
(F2.0
L4209297L
tp312
sL4201086L
(F0.8
L4201093L
tp313
sL4207231L
(F1.0
L4207238L
tp314
sL4219520L
(F20.0
L4219585L
tp315
sL4217280L
(F8.0
L4217318L
tp316
sL4223618L
(F14.222222222222221
L4223632L
tp317
sL4205188L
(F1.5975039001560063
L4205281L
tp318
sL4201093L
(F3.2
L4201106L
tp319
sL4207238L
(F2.0
L4207242L
tp320
sL4203143L
(F8.903742952245093
L4203155L
tp321
sL4207242L
(F4.0
L4207246L
tp322
sL4221580L
(F8.0
L4221600L
tp323
sL4207246L
(F8.0
L4207263L
tp324
sL4223632L
(F0.6368159203980099
L4223646L
tp325
sL4209297L
(F1.0
L4209352L
tp326
sL4201106L
(F6.4
L4201123L
tp327
sL4203155L
(F17.807485904490186
L4203165L
tp328
sL4214433L
(F1.3978159126365053
L4214444L
tp329
sL4215450L
(F61.74320323014804
L4215459L
tp330
sL4203165L
(F11.871657269660123
L4203174L
tp331
sL4223646L
(F0.7781155015197568
L4223657L
tp332
sL4207263L
(F16.0
L4207275L
tp333
sL4221600L
(F4.0
L4221625L
tp334
sL4201123L
(F0.9846153846153847
L4201150L
tp335
sL4206056L
(F11.440841443721904
L4206064L
tp336
sL4203174L
(F23.743314539320245
L4203204L
tp337
sL4215464L
(F0.9079882827962946
L4215476L
tp338
sL4223657L
(F0.5601750547045952
L4223662L
tp339
sL4223662L
(F1.1203501094091903
L4223670L
tp340
sL4214752L
(F0.3014144241367019
L4214757L
tp341
sL4207280L
(F4.0
L4207309L
tp342
sL4218312L
(F2.0
L4218339L
tp343
sL4213426L
(F1.0
L4213433L
tp344
sL4205683L
(F2.4974657977973402
L4205731L
tp345
sL4215476L
(F1.8159765655925892
L4215537L
tp346
sL4211486L
(F1.0
L4211525L
tp347
sL4223670L
(F2.2407002188183807
L4223679L
tp348
sL4221625L
(F2.6666666666666665
L4221637L
tp349
sL4201150L
(F0.9846153846153847
L4201160L
tp350
sL4223679L
(F4.481400437636761
L4223719L
tp351
sL4207392L
(F1.3333333333333333
L4207425L
tp352
sL4203204L
(F3.768033864928382
L4203225L
tp353
sL4221637L
(F5.333333333333333
L4221661L
tp354
sL4206369L
(F3.324338033884549
L4206396L
tp355
sL4209352L
(F2.0
L4209372L
tp356
sL4217551L
(F2.0
L4217577L
tp357
sL4207312L
(F2.0
L4207314L
tp358
sL4223096L
(F2.0
L4223100L
tp359
sL4207314L
(F2.0
L4207327L
tp360
sL4203225L
(F7.536067729856764
L4203248L
tp361
sL4213467L
(F4.0
L4213487L
tp362
sL4209372L
(F1.0
L4209402L
tp363
sL4221661L
(F10.666666666666666
L4221670L
tp364
sL4207327L
(F16.0
L4207337L
tp365
sL4216704L
(F2.0
L4216709L
tp366
sL4205281L
(F1.1415830546265329
L4205295L
tp367
sL4221670L
(F5.333333333333333
L4221675L
tp368
sL4223719L
(F8.962800875273523
L4223722L
tp369
sL4223100L
(F4.0
L4223110L
tp370
sL4223722L
(F1.3828494260634707
L4223745L
tp371
sL4213487L
(F2.0
L4213517L
tp372
sL4203248L
(F0.5974165671519339
L4203261L
tp373
sL4215537L
(F0.9517755334069161
L4215547L
tp374
sL4221683L
(F1.2307692307692308
L4221692L
tp375
sL4215547L
(F0.9752920016837666
L4215562L
tp376
sL4203261L
(F1.1948331343038678
L4203304L
tp377
sL4207360L
(F1.0
L4207381L
tp378
sL4223745L
(F3.270259481037924
L4223780L
tp379
sL4201607L
(F0.6649350649350649
L4201644L
tp380
sL4222081L
(F2.6666666666666665
L4222101L
tp381
sL4201227L
(F1.9844961240310077
L4201236L
tp382
sL4213517L
(F1.032258064516129
L4213525L
tp383
sL4217616L
(F1.0
L4217664L
tp384
sL4214904L
(F1.8750286106660563
L4214918L
tp385
sL4201236L
(F3.9689922480620154
L4201246L
tp386
sL4207381L
(F2.0
L4207387L
tp387
sL4213528L
(F4.0
L4213542L
tp388
sL4215577L
(F2.622376563058235
L4215582L
tp389
sL4207387L
(F4.0
L4207389L
tp390
sL4205340L
(F1.453513129879347
L4205347L
tp391
sL4218608L
(F1.0
L4218620L
tp392
sL4215582L
(F5.24475312611647
L4215586L
tp393
sL4219680L
(F20.0
L4219685L
tp394
sL10334000L
(F1.0
L10334004L
tp395
sL4215586L
(F2.622376563058235
L4215595L
tp396
sL4205347L
(F2.907026259758694
L4205368L
tp397
sL4223780L
(F0.8996266198111136
L4223804L
tp398
sL4213542L
(F8.0
L4213554L
tp399
sL4219688L
(F20.0
L4219743L
tp400
sL4215595L
(F5.24475312611647
L4215610L
tp401
sL4206107L
(F4.92012012012012
L4206119L
tp402
sL4203309L
(F1.1948331343038678
L4203363L
tp403
sL4213554L
(F16.0
L4213570L
tp404
sL4219358L
(F2.0
L4219366L
tp405
sL4205368L
(F5.814052519517388
L4205379L
tp406
sL4208436L
(F1.3333333333333333
L4208446L
tp407
sL4215610L
(F2.622376563058235
L4215619L
tp408
sL4221756L
(F2.0
L4221785L
tp409
sL4217664L
(F1.0
L4217679L
tp410
sL4223456L
(F2.2857142857142856
L4223481L
tp411
sL4213570L
(F32.0
L4213581L
tp412
sL4205379L
(F2.907026259758694
L4205400L
tp413
sL10333916L
(F1.0
L10333920L
tp414
sL4201287L
(F1.9844961240310077
L4201368L
tp415
sL4213581L
(F8.0
L4213608L
tp416
sL4207440L
(F1.0
L4207463L
tp417
sL4215200L
(F15.43580080753701
L4215207L
tp418
sL4215637L
(F2.622376563058235
L4215649L
tp419
sL4205400L
(F5.814052519517388
L4205416L
tp420
sL4221785L
(F4.0
L4221802L
tp421
sL4219744L
(F20.0
L4219806L
tp422
sL4219024L
(F1.0
L4219047L
tp423
sL4203363L
(F0.5974165671519339
L4203376L
tp424
sL4206449L
(F7.937984496124031
L4206484L
tp425
sL4217318L
(F4.0
L4217354L
tp426
sL4221952L
(F8.0
L4221966L
tp427
sL4207463L
(F1.0
L4207491L
tp428
sL4205416L
(F2.907026259758694
L4205428L
tp429
sL4223804L
(F2.4820481745190124
L4223855L
tp430
sL4221802L
(F4.0
L4221812L
tp431
sL4206738L
(F5.814052519517388
L4206752L
tp432
sL4215662L
(F1.1346442797482648
L4215667L
tp433
sL4223855L
(F4.964096349038025
L4223896L
tp434
sL4203376L
(F1.1948331343038678
L4203430L
tp435
sL4212064L
(F2.0
L4212116L
tp436
sL4215667L
(F2.2692885594965295
L4215671L
tp437
sL4205428L
(F1.1848423488573907
L4205449L
tp438
sL4215671L
(F1.1346442797482648
L4215680L
tp439
sL4221816L
(F4.0
L4221825L
tp440
sL4214591L
(F3951.5650067294746
L4214600L
tp441
sL4221680L
(F3.2
L4221683L
tp442
sL4215680L
(F0.6555941407645588
L4215684L
tp443
sL4200256L
(F0.8
L4200256L
tp444
sL4207491L
(F1.3333333333333333
L4207526L
tp445
sL4215684L
(F1.3111882815291176
L4215689L
tp446
sL4205449L
(F2.3696846977147814
L4205460L
tp447
sL4215694L
(F5.24475312611647
L4215698L
tp448
sL4213648L
(F1.0
L4213657L
tp449
sL4221080L
(F2.0
L4221095L
tp450
sL4215698L
(F2.622376563058235
L4215707L
tp451
sL4215619L
(F5.24475312611647
L4215637L
tp452
sL4205460L
(F0.5707915273132664
L4205485L
tp453
sL4206064L
(F22.88168288744381
L4206069L
tp454
sL4208793L
(F3.2
L4208800L
tp455
sL4201368L
(F0.6649350649350649
L4201385L
tp456
sL4213657L
(F2.0
L4213672L
tp457
sL4218544L
(F1.0
L4218544L
tp458
sL4211616L
(F2.0
L4211622L
tp459
sL4219376L
(F20.0
L4219499L
tp460
sL4204496L
(F2.9033839900430976
L4204514L
tp461
sL4203430L
(F0.5974165671519339
L4203434L
tp462
sL4200945L
(F3.2
L4200952L
tp463
sL4213672L
(F4.0
L4213688L
tp464
sL4201385L
(F1.3298701298701299
L4201553L
tp465
sL4203434L
(F1.1948331343038678
L4203445L
tp466
sL4221867L
(F8.533333333333333
L4221896L
tp467
sL4205485L
(F0.7226534932956952
L4205498L
tp468
sL4207840L
(F1.0
L4207866L
tp469
sL4214600L
(F7903.130013458949
L4214610L
tp470
sL4215732L
(F56.0
L4215770L
tp471
sL4203445L
(F2.3896662686077357
L4203455L
tp472
sL4213688L
(F8.0
L4213706L
tp473
sL4205498L
(F0.5781227946365561
L4205532L
tp474
sL4203455L
(F4.779332537215471
L4203465L
tp475
sL4217792L
(F1.0
L4217819L
tp476
sL4213920L
(F1.0
L4213959L
tp477
sL4214638L
(F7903.130013458949
L4214648L
tp478
sL4216801L
(F56.0
L4216831L
tp479
sL4214945L
(F1.878314417203033
L4214953L
tp480
sL4203465L
(F9.558665074430943
L4203472L
tp481
sL4213706L
(F16.0
L4213736L
tp482
sL4203472L
(F0.5443844981330808
L4203491L
tp483
sL4206072L
(F6.809598337500406
L4206083L
tp484
sL4205731L
(F1.02393600399975
L4205735L
tp485
sL4216654L
(F61.74320323014804
L4216663L
tp486
sL4217819L
(F2.0
L4217824L
tp487
sL4205532L
(F1.1562455892731123
L4205550L
tp488
sL4209408L
(F1.0
L4209510L
tp489
sL4221002L
(F1.0
L4221017L
tp490
sL4215776L
(F14.0
L4215787L
tp491
sL4223969L
(F0.9660377358490566
L4223988L
tp492
sL4221922L
(F0.9142857142857143
L4221933L
tp493
sL4203491L
(F0.7049857063330491
L4203497L
tp494
sL4207589L
(F2.6666666666666665
L4207594L
tp495
sL4219880L
(F20.0
L4219948L
tp496
sL4203497L
(F0.2579994960947342
L4203507L
tp497
sL4207594L
(F2.6666666666666665
L4207599L
tp498
sL4215787L
(F28.0
L4215796L
tp499
sL4217837L
(F1.3333333333333333
L4217842L
tp500
sL4205550L
(F0.5159989921894684
L4205558L
tp501
sL4207599L
(F1.3333333333333333
L4207610L
tp502
sL4221936L
(F4.0
L4221952L
tp503
sL4203507L
(F0.5159989921894684
L4203519L
tp504
sL4223988L
(F1.9320754716981132
L4223993L
tp505
sL4205558L
(F0.7987519500780031
L4205573L
tp506
sL4202112L
(F0.6649350649350649
L4202154L
tp507
sL4215295L
(F246.97281292059216
L4215304L
tp508
sL4211709L
(F1.0
L4211790L
tp509
sL4203519L
(F1.0319979843789369
L4203563L
tp510
sL4207616L
(F2.0
L4207626L
tp511
sL4212224L
(F1.0
L4212318L
tp512
sL4213763L
(F2.0
L4213795L
tp513
sL4205573L
(F1.5975039001560063
L4205584L
tp514
sL4201553L
(F0.6649350649350649
L4201587L
tp515
sL4224008L
(F0.9827844760362305
L4224014L
tp516
sL4207626L
(F4.0
L4207651L
tp517
sL4221966L
(F16.0
L4221986L
tp518
sL4205584L
(F1.23003003003003
L4205596L
tp519
sL4217184L
(F1.0
L4217184L
tp520
sL4206083L
(F3.404799168750203
L4206089L
tp521
sL4199445L
(F1.0
L4199450L
tp522
sL4224022L
(F0.5253470997531022
L4224034L
tp523
sL4214320L
(F14.0
L4214352L
tp524
sL4201988L
(F0.6649350649350649
L4202028L
tp525
sL4216256L
(F1.8159765655925892
L4216278L
tp526
sL4205596L
(F2.46006006006006
L4205609L
tp527
sL4215840L
(F14.0
L4215880L
tp528
sL4219056L
(F1.0
L4219075L
tp529
sL4224034L
(F2.909090909090909
L4224050L
tp530
sL4212752L
(F1.0
L4212772L
tp531
sL4207656L
(F5.333333333333333
L4207668L
tp532
sL4205609L
(F4.92012012012012
L4205621L
tp533
sL4221072L
(F1.0
L4221080L
tp534
sL4203563L
(F1.6
L4203584L
tp535
sL4219952L
(F20.0
L4220029L
tp536
sL4215304L
(F1.991934599698877
L4215313L
tp537
sL4224050L
(F8.0
L4224066L
tp538
sL4207668L
(F1.6842105263157894
L4207705L
tp539
sL4205621L
(F1.6621690169422745
L4205633L
tp540
sL4206089L
(F2.9637870411197413
L4206100L
tp541
sL10333856L
(F1.0
L10333860L
tp542
sL4222016L
(F1.0
L4222034L
tp543
sL10334048L
(F1.0
L10334052L
tp544
sL4224066L
(F16.0
L4224075L
tp545
sL4215649L
(F0.5673221398741324
L4215662L
tp546
sL4213833L
(F2.0
L4213905L
tp547
sL10333852L
(F1.0
L10333856L
tp548
sL4203597L
(F3.2
L4203608L
tp549
sL4211790L
(F2.0
L4211810L
tp550
sL4212696L
(F2.6666666666666665
L4212706L
tp551
sL4215888L
(F14.0
L4215917L
tp552
sL4205649L
(F4.4126043630487475
L4205663L
tp553
sL4222034L
(F2.0
L4222047L
tp554
sL4222544L
(F2.0
L4222554L
tp555
sL4224085L
(F2.113519091847265
L4224099L
tp556
sL4203608L
(F6.4
L4203631L
tp557
sL4205663L
(F8.825208726097495
L4205671L
tp558
sL4207712L
(F2.6666666666666665
L4207751L
tp559
sL4218384L
(F1.0
L4218401L
tp560
sL4211810L
(F1.0
L4211847L
tp561
sL4224099L
(F4.22703818369453
L4224110L
tp562
sL4209510L
(F2.0
L4209520L
tp563
sL4215313L
(F3.983869199397754
L4215323L
tp564
sL4205674L
(F0.5920786354437699
L4205683L
tp565
sL4207776L
(F2.0
L4207830L
tp566
sL4224110L
(F2.113519091847265
L4224115L
tp567
sL4203631L
(F12.8
L4203636L
tp568
sL4215920L
(F14.0
L4215960L
tp569
sL4224115L
(F2.8180254557963536
L4224124L
tp570
sL4203640L
(F2.5094195129422574
L4203648L
tp571
sL4206100L
(F1.4818935205598707
L4206107L
tp572
sL4224124L
(F1.2398032538781687
L4224146L
tp573
sL4220032L
(F20.0
L4220125L
tp574
sL4208832L
(F5.333333333333333
L4208867L
tp575
sL4203653L
(F2.278675877775339
L4203713L
tp576
sL4207751L
(F5.333333333333333
L4207770L
tp577
sL4208800L
(F2.6666666666666665
L4208832L
tp578
sL4211856L
(F1.0
L4211890L
tp579
sL10333720L
(F1.0
L10333724L
tp580
sL4224146L
(F2.4796065077563374
L4224156L
tp581
sL4222101L
(F1.3333333333333333
L4222139L
tp582
sL4221467L
(F4.0
L4221501L
tp583
sL4224156L
(F4.964096349038025
L4224210L
tp584
sL4215968L
(F14.0
L4215970L
tp585
sL4220784L
(F2.0
L4220789L
tp586
sL4215970L
(F28.0
L4216018L
tp587
sL4203035L
(F1.430105180465238
L4203044L
tp588
sL4216848L
(F493.9456258411843
L4216862L
tp589
sL4205735L
(F7.536067729856764
L4205757L
tp590
sL4201644L
(F1.3298701298701299
L4201664L
tp591
sL4214301L
(F2.0
L4214316L
tp592
sL4211890L
(F1.0
L4211900L
tp593
sL4202050L
(F0.6649350649350649
L4202092L
tp594
sL4221812L
(F2.0
L4221816L
tp595
sL4222139L
(F2.6666666666666665
L4222159L
tp596
sL4211900L
(F1.0
L4211905L
tp597
sL4205757L
(F2.7799952941020516
L4205773L
tp598
sL4204473L
(F2.278675877775339
L4204486L
tp599
sL4201664L
(F0.6649350649350649
L4201704L
tp600
sL4211905L
(F2.0
L4211920L
tp601
sL4214987L
(F3.756628834406066
L4214992L
tp602
sL4213959L
(F0.800625488663018
L4213973L
tp603
sL4205773L
(F5.559990588204103
L4205785L
tp604
sL4222159L
(F1.3333333333333333
L4222201L
tp605
sL4211920L
(F2.0
L4211959L
tp606
sL4216018L
(F14.0
L4216027L
tp607
sL4215281L
(F123.48640646029608
L4215295L
tp608
sL4213976L
(F2.0
L4213992L
tp609
sL4216027L
(F28.0
L4216039L
tp610
sL4224221L
(F0.8477821814518541
L4224226L
tp611
sL4204514L
(F1.4516919950215488
L4204524L
tp612
sL4220128L
(F20.0
L4220237L
tp613
sL4219088L
(F1.0
L4219098L
tp614
sL4224226L
(F4.964096349038025
L4224253L
tp615
sL4203748L
(F2.278675877775339
L4203768L
tp616
sL4216039L
(F56.0
L4216048L
tp617
sL4201704L
(F1.3298701298701299
L4201724L
tp618
sL4201779L
(F1.3298701298701299
L4201799L
tp619
sL4224210L
(F3.5555555555555554
L4224221L
tp620
sL4216048L
(F1.9310344827586206
L4216053L
tp621
sL4209008L
(F1.0
L4209057L
tp622
sL4202369L
(F2.907026259758694
L4202417L
tp623
sL4205812L
(F9.305432739759345
L4205825L
tp624
sL4216053L
(F3.862068965517241
L4216056L
tp625
sL4214813L
(F2.0089686098654704
L4214820L
tp626
sL4211959L
(F4.0
L4211979L
tp627
sL4203768L
(F1.1393379388876694
L4203807L
tp628
sL4222201L
(F2.6666666666666665
L4222221L
tp629
sL4207866L
(F2.0
L4207903L
tp630
sL4201724L
(F0.6649350649350649
L4201779L
tp631
sL4224253L
(F4.22703818369453
L4224266L
tp632
sL4218624L
(F1.0
L4218639L
tp633
sL4214016L
(F16.0
L4214022L
tp634
sL4220800L
(F1.0
L4220817L
tp635
sL4216068L
(F3.2
L4216109L
tp636
sL4214022L
(F32.0
L4214028L
tp637
sL4221825L
(F6.4
L4221843L
tp638
sL4202028L
(F1.3298701298701299
L4202050L
tp639
sL4211979L
(F2.0
L4212011L
tp640
sL4214028L
(F64.0
L4214034L
tp641
sL4222221L
(F1.3333333333333333
L4222262L
tp642
sL4221216L
(F1.0
L4221216L
tp643
sL4224272L
(F1.0
L4224328L
tp644
sL4214034L
(F128.0
L4214053L
tp645
sL4209520L
(F0.6666666666666666
L4211486L
tp646
sL4203807L
(F2.278675877775339
L4203827L
tp647
sL4218416L
(F1.0
L4218426L
tp648
sL4205858L
(F3.101810913253115
L4205867L
tp649
sL4207910L
(F2.0
L4208417L
tp650
sL4214056L
(F1.3509234828496042
L4214076L
tp651
sL4205867L
(F6.20362182650623
L4205886L
tp652
sL4216112L
(F2.7956318252730106
L4216123L
tp653
sL4212616L
(F3.5555555555555554
L4212650L
tp654
sL4203827L
(F1.1393379388876694
L4203869L
tp655
sL4222262L
(F2.6666666666666665
L4222282L
tp656
sL4215689L
(F2.622376563058235
L4215694L
tp657
sL4216123L
(F5.591263650546021
L4216129L
tp658
sL4205886L
(F12.40724365301246
L4205896L
tp659
sL4212032L
(F2.0
L4212064L
tp660
sL4205792L
(F4.6527163698796725
L4205812L
tp661
sL4204427L
(F2.278675877775339
L4204447L
tp662
sL4214085L
(F8.0
L4214097L
tp663
sL4201799L
(F0.6649350649350649
L4201837L
tp664
sL4205896L
(F1.4926172800898923
L4205931L
tp665
sL4222282L
(F1.3333333333333333
L4222323L
tp666
sL4215351L
(F30.87160161507402
L4215358L
tp667
sL4218191L
(F2.0
L4218200L
tp668
sL4220240L
(F2.0
L4220268L
tp669
sL4214097L
(F16.0
L4214103L
tp670
sL4208867L
(F1.4545454545454546
L4208878L
tp671
sL4220400L
(F1.6
L4220425L
tp672
sL4216640L
(F30.87160161507402
L4216654L
tp673
sL4214103L
(F32.0
L4214109L
tp674
sL4218200L
(F1.0
L4218220L
tp675
sL4223128L
(F2.0
L4223137L
tp676
sL4214109L
(F64.0
L4214115L
tp677
sL4221696L
(F1.0
L4221756L
tp678
sL4219136L
(F1.0
L4219153L
tp679
sL4216160L
(F1.3016161249319047
L4216169L
tp680
sL4214115L
(F128.0
L4214121L
tp681
sL4206284L
(F3.324338033884549
L4206349L
tp682
sL4224358L
(F1.0
L4224373L
tp683
sL4220817L
(F2.0
L4220826L
tp684
sL4216169L
(F2.6032322498638094
L4216219L
tp685
sL4205931L
(F2.907026259758694
L4205940L
tp686
sL4201837L
(F1.3298701298701299
L4201857L
tp687
sL4214127L
(F512.0
L4214133L
tp688
sL4218224L
(F1.0
L4218234L
tp689
sL4203889L
(F1.1393379388876694
L4203931L
tp690
sL4222323L
(F2.6666666666666665
L4222343L
tp691
sL4205940L
(F5.814052519517388
L4205945L
tp692
sL4214133L
(F1024.0
L4214160L
tp693
sL4205945L
(F3.9689922480620154
L4205957L
tp694
sL4205671L
(F0.5245229862978614
L4205674L
tp695
sL4211536L
(F1.0
L4211616L
tp696
sL10333760L
(F1.0
L10333764L
tp697
sL4217067L
(F12.54573361455709
L4217073L
tp698
sL4205957L
(F2.645994832041344
L4205989L
tp699
sL4222343L
(F1.3333333333333333
L4222379L
tp700
sL10333576L
(F1.0
L10333580L
tp701
sL10333580L
(F1.0
L10333584L
tp702
sL4221152L
(F1.0
L4221175L
tp703
sL4224400L
(F1.0
L4224412L
tp704
sL4223896L
(F2.4820481745190124
L4223905L
tp705
sL10333588L
(F1.0
L10333592L
tp706
sL4218262L
(F2.0
L4218280L
tp707
sL10333592L
(F1.0
L10333596L
tp708
sL4216219L
(F5.206464499727619
L4216230L
tp709
sL10333596L
(F1.0
L10333600L
tp710
sL4213992L
(F4.0
L4214004L
tp711
sL4209221L
(F1.0
L4209277L
tp712
sL4212128L
(F4.0
L4212168L
tp713
sL4199664L
(F1.2307692307692308
L4199664L
tp714
sL10333604L
(F1.0
L10333608L
tp715
sL4205989L
(F1.4514528703047485
L4206022L
tp716
sL4224422L
(F2.0
L4224426L
tp717
sL4224336L
(F0.6666666666666666
L4224358L
tp718
sL10333608L
(F1.0
L10333612L
tp719
sL4216993L
(F6.272866807278545
L4217067L
tp720
sL4201898L
(F1.3298701298701299
L4201918L
tp721
sL10333612L
(F1.0
L10333616L
tp722
sL4203951L
(F1.1393379388876694
L4203993L
tp723
sL4199856L
(F1.0
L4199856L
tp724
sL4215152L
(F15.43580080753701
L4215159L
tp725
sL10333620L
(F1.0
L10333624L
tp726
sL10333664L
(F1.0
L10333668L
tp727
sL10333624L
(F1.0
L10333628L
tp728
sL4214004L
(F8.0
L4214016L
tp729
sL4218298L
(F1.0
L4218312L
tp730
sL4204447L
(F1.1393379388876694
L4204473L
tp731
sL10333628L
(F1.0
L10333632L
tp732
sL4201918L
(F0.6649350649350649
L4201968L
tp733
sL10333632L
(F1.0
L10333636L
tp734
sL4215712L
(F14.0
L4215723L
tp735
sL10333636L
(F1.0
L10333640L
tp736
sL4206022L
(F2.860210360930476
L4206042L
tp737
sL4223905L
(F4.964096349038025
L4223969L
tp738
sL10333640L
(F1.0
L10333644L
tp739
sL4220361L
(F2.0
L4220368L
tp740
sL10333644L
(F1.0
L10333648L
tp741
sL4223200L
(F1.0
L4223273L
tp742
sL4202264L
(F0.6649350649350649
L4202273L
tp743
sL10333648L
(F1.0
L10333652L
tp744
sL4216056L
(F1.9310344827586206
L4216068L
tp745
sL4222418L
(F8.0
L4222438L
tp746
sL4214691L
(F0.36875955052928316
L4214714L
tp747
sL10333652L
(F1.0
L10333656L
tp748
sL4216278L
(F1.2897668167990868
L4216349L
tp749
sL10333656L
(F1.0
L10333660L
tp750
sL4203993L
(F2.278675877775339
L4204013L
tp751
sL4206042L
(F5.720420721860952
L4206056L
tp752
sL4220379L
(F1.0
L4220384L
tp753
sL10333660L
(F1.0
L10333664L
tp754
sL4220384L
(F1.0
L4220393L
tp755
sL4220496L
(F1.0
L4220517L
tp756
sL4218339L
(F1.0
L4218348L
tp757
sL10333668L
(F1.0
L10333672L
tp758
sL4207526L
(F2.6666666666666665
L4207546L
tp759
sL4222438L
(F4.0
L4222463L
tp760
sL10333672L
(F1.0
L10333676L
tp761
sL4224384L
(F1.0
L4224386L
tp762
sL4218348L
(F2.0
L4218367L
tp763
sL4204013L
(F1.1393379388876694
L4204055L
tp764
sL4219216L
(F1.0
L4219216L
tp765
sL4201968L
(F1.3298701298701299
L4201988L
tp766
sL4221360L
(F1.0
L4221401L
tp767
sL10333684L
(F1.0
L10333688L
tp768
sL10333688L
(F1.0
L10333692L
tp769
sL4218496L
(F1.0
L4218496L
tp770
sL10333692L
(F1.0
L10333696L
tp771
sL4218367L
(F1.0
L4218382L
tp772
sL10333696L
(F1.0
L10333700L
tp773
sL4221184L
(F1.0
L4221198L
tp774
sL4215723L
(F28.0
L4215732L
tp775
sL10333700L
(F1.0
L10333704L
tp776
sL4205825L
(F2.3263581849398363
L4205858L
tp777
sL10333704L
(F1.0
L10333708L
tp778
sL4220425L
(F1.0666666666666667
L4220435L
tp779
sL10333708L
(F1.0
L10333712L
tp780
sL10333712L
(F1.0
L10333716L
tp781
sL4220435L
(F0.8
L4220443L
tp782
sL10333716L
(F1.0
L10333720L
tp783
sL4204055L
(F2.278675877775339
L4204075L
tp784
sL4222488L
(F8.0
L4222502L
tp785
sL4220443L
(F1.6
L4220467L
tp786
sL10333724L
(F1.0
L10333728L
tp787
sL4216349L
(F0.7841083509098181
L4216406L
tp788
sL4212496L
(F0.6666666666666666
L4212531L
tp789
sL10333728L
(F1.0
L10333732L
tp790
sL4218800L
(F1.0
L4218816L
tp791
sL10333732L
(F1.0
L10333736L
tp792
sL4206119L
(F9.84024024024024
L4206126L
tp793
sL10333736L
(F1.0
L10333740L
tp794
sL4219808L
(F20.0
L4219877L
tp795
sL4204075L
(F1.1393379388876694
L4204117L
tp796
sL10333740L
(F1.0
L10333744L
tp797
sL4206126L
(F15.875968992248062
L4206134L
tp798
sL4222512L
(F1.0
L4222530L
tp799
sL4219248L
(F2.0
L4219274L
tp800
sL4220467L
(F3.2
L4220472L
tp801
sL10333748L
(F1.0
L10333752L
tp802
sL4206134L
(F3.1950078003120126
L4206155L
tp803
sL10333752L
(F1.0
L10333756L
tp804
sL10333756L
(F1.0
L10333760L
tp805
sL4218432L
(F1.0
L4218454L
tp806
sL10333792L
(F1.0
L10333796L
tp807
sL4222530L
(F0.8
L4222543L
tp808
sL4216248L
(F1.735488166575873
L4216256L
tp809
sL10333764L
(F1.0
L10333768L
tp810
sL4222561L
(F8.0
L4222595L
tp811
sL10333768L
(F1.0
L10333772L
tp812
sL4206155L
(F6.390015600624025
L4206171L
tp813
sL10333772L
(F1.0
L10333776L
tp814
sL4209072L
(F1.0
L4209072L
tp815
sL10333776L
(F1.0
L10333780L
tp816
sL4220272L
(F2.0
L4220342L
tp817
sL10333780L
(F1.0
L10333784L
tp818
sL4204117L
(F2.278675877775339
L4204137L
tp819
sL4216406L
(F1.5682167018196362
L4216416L
tp820
sL4220857L
(F1.0
L4220870L
tp821
sL10333784L
(F1.0
L10333788L
tp822
sL4217444L
(F4.0
L4217461L
tp823
sL4222554L
(F4.0
L4222561L
tp824
sL4206171L
(F3.1950078003120126
L4206187L
tp825
sL10333788L
(F1.0
L10333792L
tp826
sL4207546L
(F1.3333333333333333
L4207589L
tp827
sL4218464L
(F1.0
L4218482L
tp828
sL4208912L
(F1.0
L4208959L
tp829
sL4201246L
(F7.937984496124031
L4201287L
tp830
sL4201587L
(F1.3298701298701299
L4201607L
tp831
sL10333796L
(F1.0
L10333800L
tp832
sL4220517L
(F2.0
L4220572L
tp833
sL10333800L
(F1.0
L10333804L
tp834
sL4204137L
(F1.1393379388876694
L4204179L
tp835
sL4216426L
(F6.272866807278545
L4216433L
tp836
sL4206187L
(F6.390015600624025
L4206192L
tp837
sL10333804L
(F1.0
L10333808L
tp838
sL4206192L
(F2.46006006006006
L4206241L
tp839
sL4216433L
(F12.54573361455709
L4216440L
tp840
sL10333812L
(F1.0
L10333816L
tp841
sL4214390L
(F0.8057553956834532
L4214406L
tp842
sL10333816L
(F1.0
L10333820L
tp843
sL4222384L
(F4.0
L4222418L
tp844
sL10333820L
(F1.0
L10333824L
tp845
sL4200016L
(F1.0
L4200016L
tp846
sL10333824L
(F1.0
L10333828L
tp847
sL4218816L
(F1.0
L4218833L
tp848
sL4219499L
(F4.0
L4219514L
tp849
sL10333828L
(F1.0
L10333832L
tp850
sL4206864L
(F1.0
L4206885L
tp851
sL4214406L
(F1.6115107913669064
L4214416L
tp852
sL10334012L
(F1.0
L10334016L
tp853
sL10333832L
(F1.0
L10333836L
tp854
sL4202092L
(F1.3298701298701299
L4202112L
tp855
sL4222047L
(F1.3333333333333333
L4222081L
tp856
sL10333836L
(F1.0
L10333840L
tp857
sL4222607L
(F8.0
L4222613L
tp858
sL10333840L
(F1.0
L10333844L
tp859
sL4204179L
(F2.278675877775339
L4204199L
tp860
sL10333844L
(F1.0
L10333848L
tp861
sL4199952L
(F1.0
L4199952L
tp862
sL10333848L
(F1.0
L10333852L
tp863
sL4221843L
(F12.8
L4221867L
tp864
sL4216477L
(F3.8466931750186664
L4216502L
tp865
sL4204385L
(F1.1393379388876694
L4204427L
tp866
sL4222624L
(F1.0
L4222629L
tp867
sL10333808L
(F1.0
L10333812L
tp868
sL10333860L
(F1.0
L10333864L
tp869
sL4222629L
(F2.0
L4222634L
tp870
sL4204199L
(F1.1393379388876694
L4204241L
tp871
sL10333864L
(F1.0
L10333868L
tp872
sL10333600L
(F1.0
L10333604L
tp873
sL4202154L
(F1.3298701298701299
L4202174L
tp874
sL10333868L
(F1.0
L10333872L
tp875
sL10333872L
(F1.0
L10333876L
tp876
sL4212402L
(F4.0
L4212422L
tp877
sL4214451L
(F0.48236877523553157
L4214465L
tp878
sL10333876L
(F1.0
L10333880L
tp879
sL4216502L
(F2.5644621166791106
L4216511L
tp880
sL10333880L
(F1.0
L10333884L
tp881
sL4215412L
(F61.74320323014804
L4215421L
tp882
sL4207903L
(F0.9411764705882353
L4207910L
tp883
sL10333884L
(F1.0
L10333888L
tp884
sL4214730L
(F0.474997385584371
L4214735L
tp885
sL4202174L
(F0.6649350649350649
L4202216L
tp886
sL4216511L
(F1.614042016365083
L4216558L
tp887
sL10333888L
(F1.0
L10333892L
tp888
sL4214465L
(F0.9647375504710631
L4214476L
tp889
sL10333892L
(F1.0
L10333896L
tp890
sL4217479L
(F4.0
L4217551L
tp891
sL4212422L
(F2.0
L4212496L
tp892
sL10333896L
(F1.0
L10333900L
tp893
sL10333900L
(F1.0
L10333904L
tp894
sL4222672L
(F1.0
L4222720L
tp895
sL4216440L
(F25.09146722911418
L4216446L
tp896
sL10333908L
(F1.0
L10333912L
tp897
sL10333912L
(F1.0
L10333916L
tp898
sL4214735L
(F0.949994771168742
L4214744L
tp899
sL4214480L
(F15.43580080753701
L4214493L
tp900
sL4214493L
(F30.87160161507402
L4214502L
tp901
sL4218640L
(F1.0
L4218640L
tp902
sL10333920L
(F1.0
L10333924L
tp903
sL4221904L
(F2.0
L4221922L
tp904
sL10333924L
(F1.0
L10333928L
tp905
sL4204261L
(F1.1393379388876694
L4204303L
tp906
sL4222660L
(F1.3333333333333333
L4222665L
tp907
sL10333928L
(F1.0
L10333932L
tp908
sL10333932L
(F1.0
L10333936L
tp909
sL4204524L
(F2.9033839900430976
L4204526L
tp910
sL4216558L
(F3.228084032730166
L4216621L
tp911
sL4215421L
(F123.48640646029608
L4215431L
tp912
sL10333936L
(F1.0
L10333940L
tp913
sL10333940L
(F1.0
L10333944L
tp914
sL4216446L
(F50.18293445822836
L4216464L
tp915
sL4212592L
(F1.3333333333333333
L4212612L
tp916
sL10333944L
(F1.0
L10333948L
tp917
sL4216464L
(F1.9233465875093332
L4216477L
tp918
sL10333948L
(F1.0
L10333952L
tp919
sL4220885L
(F4.0
L4220894L
tp920
sL4222720L
(F2.0
L4222740L
tp921
sL4200064L
(F1.0
L4200064L
tp922
sL4212011L
(F2.0
L4212029L
tp923
sL10333956L
(F1.0
L10333960L
tp924
sL10333960L
(F1.0
L10333964L
tp925
sL4214537L
(F493.9456258411843
L4214550L
tp926
sL10333964L
(F1.0
L10333968L
tp927
sL4206349L
(F6.648676067769098
L4206369L
tp928
sL4219200L
(F1.0
L4219214L
tp929
sL4204303L
(F2.278675877775339
L4204323L
tp930
sL10333968L
(F1.0
L10333972L
tp931
sL4214744L
(F0.474997385584371
L4214748L
tp932
sL4222595L
(F16.0
L4222607L
tp933
sL10333972L
(F1.0
L10333976L
tp934
sL4214550L
(F987.8912516823686
L4214566L
tp935
sL10333744L
(F1.0
L10333748L
tp936
sL10333976L
(F1.0
L10333980L
tp937
sL4202957L
(F2.907026259758694
L4202960L
tp938
sL10333980L
(F1.0
L10333984L
tp939
sL10333676L
(F1.0
L10333680L
tp940
sL10333984L
(F1.0
L10333988L
tp941
sL4202273L
(F1.3298701298701299
L4202282L
tp942
sL4204323L
(F1.1393379388876694
L4204365L
tp943
sL10333988L
(F1.0
L10333992L
tp944
sL4214566L
(F1975.7825033647373
L4214577L
tp945
sL10333992L
(F1.0
L10333996L
tp946
sL4204526L
(F0.6949988235255129
L4204531L
tp947
sL4202282L
(F2.6597402597402597
L4202297L
tp948
sL4215431L
(F61.74320323014804
L4215440L
tp949
sL10333996L
(F1.0
L10334000L
tp950
sL4216621L
(F0.511116669461316
L4216631L
tp951
sL4223280L
(F0.8157432878178718
L4223306L
tp952
sL4217856L
(F1.0
L4217981L
tp953
sL4214577L
(F3951.5650067294746
L4214582L
tp954
sL4212531L
(F1.3333333333333333
L4212540L
tp955
sL10334004L
(F1.0
L10334008L
tp956
sL4214582L
(F7903.130013458949
L4214591L
tp957
sL4216631L
(F1.022233338922632
L4216640L
tp958
sL10334008L
(F1.0
L10334012L
tp959
sL4202297L
(F1.453513129879347
L4202310L
tp960
sL4222778L
(F2.0
L4222798L
tp961
sL4212540L
(F2.6666666666666665
L4212546L
tp962
sL4208446L
(F1.7777777777777777
L4208521L
tp963
sL4220472L
(F0.9142857142857143
L4220485L
tp964
sL10334016L
(F1.0
L10334020L
tp965
sL4217824L
(F4.0
L4217837L
tp966
sL4212546L
(F1.7777777777777777
L4212551L
tp967
sL10334020L
(F1.0
L10334024L
tp968
sL4202310L
(F2.907026259758694
L4202364L
tp969
sL4218280L
(F0.6666666666666666
L4218298L
tp970
sL10334024L
(F1.0
L10334028L
tp971
sL4217143L
(F28.0
L4217170L
tp972
sL10334028L
(F1.0
L10334032L
tp973
sL4204365L
(F2.278675877775339
L4204385L
tp974
sL4222798L
(F1.0
L4222839L
tp975
sL10334032L
(F1.0
L10334036L
tp976
sL4214610L
(F3951.5650067294746
L4214619L
tp977
sL10334036L
(F1.0
L10334040L
tp978
sL4217680L
(F1.0
L4217695L
tp979
sL10334040L
(F1.0
L10334044L
tp980
sL4214416L
(F0.892430278884462
L4214424L
tp981
sL4214619L
(F7903.130013458949
L4214629L
tp982
sL10334044L
(F1.0
L10334048L
tp983
sL4206565L
(F1.9692307692307693
L4206591L
tp984
sL4220768L
(F1.0
L4220768L
tp985
sL4215440L
(F123.48640646029608
L4215450L
tp986
sL10334052L
(F1.0
L10334056L
tp987
sL4214629L
(F3951.5650067294746
L4214638L
tp988
sL10334056L
(F1.0
L10334060L
tp989
sL10334060L
(F1.0
L10334064L
tp990
sL4220782L
(F1.0
L4220784L
tp991
sL4212320L
(F1.0
L4212368L
tp992
sL4216688L
(F30.87160161507402
L4216701L
tp993
sL4213736L
(F32.0
L4213747L
tp994
sL4211689L
(F2.0
L4211709L
tp995
sL4220789L
(F4.0
L4220794L
tp996
sL4222839L
(F2.0
L4222859L
tp997
sL4214648L
(F3951.5650067294746
L4214664L
tp998
sL4208959L
(F2.0
L4208979L
tp999
sL4202364L
(F1.453513129879347
L4202369L
tp1000
sL4214516L
(F123.48640646029608
L4214529L
tp1001
sL10333952L
(F1.0
L10333956L
tp1002
sL4200320L
(F1.0
L4200320L
tp1003
sL4206912L
(F1.0
L4206912L
tp1004
sL4216709L
(F3.6319531311851785
L4216771L
tp1005
sL4216129L
(F11.182527301092042
L4216160L
tp1006
sL4214664L
(F0.1523279258123899
L4214671L
tp1007
sL4208521L
(F3.5555555555555554
L4208543L
tp1008
sL4222859L
(F1.0
L4222901L
tp1009
sL4214671L
(F0.3046558516247798
L4214681L
tp1010
sL4214424L
(F0.6989079563182526
L4214433L
tp1011
sL4206484L
(F15.875968992248062
L4206492L
tp1012
sL10333680L
(F1.0
L10333684L
tp1013
sL4212551L
(F1.7777777777777777
L4212572L
tp1014
sL4211622L
(F1.0
L4211689L
tp1015
sL4213616L
(F10.666666666666666
L4213640L
tp1016
sL4214681L
(F0.18437977526464158
L4214691L
tp1017
sL4220826L
(F2.0
L4220832L
tp1018
sL4206492L
(F31.751937984496124
L4206497L
tp1019
sL4208543L
(F1.7777777777777777
L4208650L
tp1020
sL4220832L
(F1.0
L4220837L
tp1021
sL4220912L
(F1.0
L4220932L
tp1022
sL4217760L
(F1.0
L4217779L
tp1023
sL4220572L
(F1.0
L4220629L
tp1024
sL4212650L
(F7.111111111111111
L4212670L
tp1025
sL4222962L
(F2.0
L4222982L
tp1026
sL4220848L
(F1.3333333333333333
L4220848L
tp1027
sL4224328L
(F2.0
L4224336L
tp1028
sL4213747L
(F2.0
L4213763L
tp1029
sL4220352L
(F1.0
L4220361L
tp1030
sL4222901L
(F2.0
L4222921L
tp1031
sL4206518L
(F2.8906139731827807
L4206565L
tp1032
sL4215796L
(F56.0
L4215834L
tp1033
sL4214714L
(F0.21725007825704393
L4214719L
tp1034
sL4223306L
(F0.3444115112148157
L4223315L
tp1035
sL4212670L
(F3.5555555555555554
L4212693L
tp1036
sL4214719L
(F0.2374986927921855
L4214730L
tp1037
sL4200384L
(F6.666666666666666
L4200384L
tp1038
sL4202417L
(F1.453513129879347
L4202451L
tp1039
sL4216771L
(F56.0
L4216801L
tp1040
sL4214080L
(F4.0
L4214085L
tp1041
sL4220870L
(F1.0
L4220872L
tp1042
sL4206241L
(F1.5975039001560063
L4206284L
tp1043
sL4222921L
(F1.0
L4222962L
tp1044
sL4203713L
(F1.1393379388876694
L4203748L
tp1045
sL10333616L
(F1.0
L10333620L
tp1046
sL4203304L
(F0.5974165671519339
L4203309L
tp1047
sL4220880L
(F2.0
L4220885L
tp1048
sL4202451L
(F2.907026259758694
L4202471L
tp1049
sL4216928L
(F3.1364334036392725
L4216993L
tp1050
sL4222740L
(F1.0
L4222778L
tp1051
sL4214352L
(F1.3493975903614457
L4214390L
tp1052
sL4215144L
(F15.43580080753701
L4215151L
tp1053
sL4214748L
(F0.35490048711088273
L4214752L
tp1054
sL4220894L
(F2.0
L4220899L
tp1055
sL4218848L
(F1.0
L4218858L
tp1056
sL4221264L
(F1.0
L4221286L
tp1057
sL4212706L
(F5.333333333333333
L4212724L
tp1058
sL4220899L
(F4.0
L4220904L
tp1059
sL4214757L
(F0.6028288482734038
L4214766L
tp1060
sL4202471L
(F1.453513129879347
L4202521L
tp1061
sL4206396L
(F9.84024024024024
L4206449L
tp1062
sL4214766L
(F0.3014144241367019
L4214786L
tp1063
sL4218864L
(F1.0
L4218864L
tp1064
sL4206497L
(F1.4453069865913903
L4206518L
tp1065
sL4218240L
(F1.0
L4218262L
tp1066
sL4223315L
(F0.6888230224296314
L4223330L
tp1067
sL4207056L
(F1.0
L4207071L
tp1068
sL4215376L
(F15.43580080753701
L4215387L
tp1069
sL4206591L
(F2.8073872976605463
L4206611L
tp1070
sL4222634L
(F4.0
L4222642L
tp1071
sL4220368L
(F0.6666666666666666
L4220379L
tp1072
sL4216831L
(F2.8803777281060854
L4216842L
tp1073
s.