(dp0
L4208640L
(F1.0
L4208665L
tp1
sL4200448L
(F6.666666666666666
L4200448L
tp2
sL4202502L
(F2.4824242424242424
L4202507L
tp3
sL4208300L
(F2.0
L4208318L
tp4
sL4202507L
(F1.5515151515151515
L4202518L
tp5
sL4206608L
(F5.333333333333333
L4206643L
tp6
sL4203920L
(F1.0
L4203930L
tp7
sL4218899L
(F2.6666666666666665
L4218919L
tp8
sL4211899L
(F12.54573361455709
L4211905L
tp9
sL4202518L
(F3.103030303030303
L4202523L
tp10
sL4208665L
(F2.0
L4208737L
tp11
sL4202523L
(F1.3883128025336031
L4202539L
tp12
sL4204576L
(F1.0
L4204576L
tp13
sL4207280L
(F2.0
L4207290L
tp14
sL4220962L
(F0.6666666666666666
L4220984L
tp15
sL4206512L
(F1.0
L4206534L
tp16
sL4218919L
(F0.8888888888888888
L4218949L
tp17
sL4203307L
(F2.0631025554252616
L4203317L
tp18
sL4216874L
(F8.0
L4216882L
tp19
sL4202539L
(F2.7766256050672062
L4202544L
tp20
sL4202544L
(F1.170746140258006
L4202559L
tp21
sL4216882L
(F16.0
L4216884L
tp22
sL4206643L
(F1.4545454545454546
L4206654L
tp23
sL4216884L
(F10.666666666666666
L4216889L
tp24
sL4220984L
(F1.3333333333333333
L4220999L
tp25
sL4216889L
(F21.333333333333332
L4216898L
tp26
sL4204602L
(F2.0
L4204639L
tp27
sL4210400L
(F1.3111882815291176
L4210409L
tp28
sL4206654L
(F5.333333333333333
L4206680L
tp29
sL4202559L
(F35.92982456140351
L4202575L
tp30
sL4214848L
(F20.0
L4214941L
tp31
sL4221280L
(F1.0
L4221302L
tp32
sL4216898L
(F0.6292007373446143
L4216918L
tp33
sL4218800L
(F1.3333333333333333
L4218838L
tp34
sL4218952L
(F4.0
L4218987L
tp35
sL4218584L
(F8.0
L4218604L
tp36
sL4202575L
(F71.85964912280701
L4202613L
tp37
sL4212816L
(F1.0
L4212816L
tp38
sL4204639L
(F0.9411764705882353
L4204646L
tp39
sL4206688L
(F1.0
L4206693L
tp40
sL4208737L
(F2.0
L4208742L
tp41
sL4206950L
(F2.2857142857142856
L4206971L
tp42
sL4204646L
(F2.0
L4205278L
tp43
sL4216938L
(F32.0
L4216940L
tp44
sL4218987L
(F8.0
L4219007L
tp45
sL4216940L
(F42.666666666666664
L4216971L
tp46
sL4204264L
(F2.0
L4204287L
tp47
sL4206704L
(F1.0
L4206709L
tp48
sL4210802L
(F28.0
L4210850L
tp49
sL10333892L
(F1.0
L10333896L
tp50
sL4206709L
(F2.0
L4206731L
tp51
sL4221046L
(F2.6666666666666665
L4221051L
tp52
sL4221051L
(F5.333333333333333
L4221071L
tp53
sL4212448L
(F1.0
L4212496L
tp54
sL4219007L
(F4.0
L4219045L
tp55
sL4208220L
(F4.0
L4208225L
tp56
sL4213440L
(F1.0
L4213452L
tp57
sL4215807L
(F4.0
L4215818L
tp58
sL4211051L
(F5.206464499727619
L4211062L
tp59
sL4202630L
(F17.964912280701753
L4202652L
tp60
sL4202177L
(F0.9613313359382593
L4202181L
tp61
sL4204043L
(F8.0
L4204058L
tp62
sL4216971L
(F23.272727272727273
L4216999L
tp63
sL4202492L
(F1.2412121212121212
L4202502L
tp64
sL4206736L
(F2.0
L4206738L
tp65
sL4203252L
(F0.3656699033459946
L4203307L
tp66
sL4208791L
(F0.800625488663018
L4208805L
tp67
sL4209348L
(F123.48640646029608
L4209361L
tp68
sL4209312L
(F15.43580080753701
L4209325L
tp69
sL4202652L
(F35.92982456140351
L4202657L
tp70
sL4206752L
(F1.0
L4206773L
tp71
sL4202657L
(F3.971878787878788
L4202676L
tp72
sL4210850L
(F14.0
L4210859L
tp73
sL4210608L
(F14.0
L4210619L
tp74
sL4219045L
(F8.0
L4219065L
tp75
sL4216999L
(F46.54545454545455
L4217011L
tp76
sL4208808L
(F2.0
L4208824L
tp77
sL4210859L
(F28.0
L4210871L
tp78
sL4221104L
(F1.0
L4221135L
tp79
sL4217011L
(F93.0909090909091
L4217019L
tp80
sL4202676L
(F0.7988687893120093
L4202694L
tp81
sL4206773L
(F2.0
L4206779L
tp82
sL4210871L
(F56.0
L4210880L
tp83
sL4208824L
(F4.0
L4208836L
tp84
sL4219065L
(F4.0
L4219106L
tp85
sL4206779L
(F4.0
L4206797L
tp86
sL4199493L
(F1.0
L4199498L
tp87
sL4210880L
(F1.9310344827586206
L4210885L
tp88
sL4210720L
(F14.0
L4210749L
tp89
sL4217027L
(F41.37373737373738
L4217037L
tp90
sL4208836L
(F8.0
L4208848L
tp91
sL4210885L
(F3.862068965517241
L4210888L
tp92
sL4202694L
(F1.5977375786240187
L4202729L
tp93
sL4210888L
(F1.9310344827586206
L4210900L
tp94
sL4206797L
(F2.0
L4206801L
tp95
sL4221135L
(F1.0
L4221225L
tp96
sL4208848L
(F16.0
L4208854L
tp97
sL4212186L
(F2.0
L4212276L
tp98
sL4210900L
(F3.2
L4210941L
tp99
sL4208854L
(F32.0
L4208860L
tp100
sL4217047L
(F46.54545454545455
L4217059L
tp101
sL4206808L
(F2.0
L4206817L
tp102
sL4208860L
(F64.0
L4208866L
tp103
sL4206139L
(F1.6
L4206157L
tp104
sL4208866L
(F128.0
L4208885L
tp105
sL4217059L
(F8.0
L4217068L
tp106
sL4202729L
(F3.1954751572480373
L4202749L
tp107
sL4217068L
(F16.0
L4217082L
tp108
sL4206832L
(F1.0
L4206872L
tp109
sL4201512L
(F4.491228070175438
L4201517L
tp110
sL4219126L
(F4.0
L4219159L
tp111
sL4204064L
(F4.0
L4204079L
tp112
sL4208888L
(F1.3509234828496042
L4208908L
tp113
sL4217082L
(F32.0
L4217120L
tp114
sL4202749L
(F1.5977375786240187
L4202782L
tp115
sL4210944L
(F2.7956318252730106
L4210955L
tp116
sL4215168L
(F1.0
L4215177L
tp117
sL4210955L
(F5.591263650546021
L4210961L
tp118
sL4201517L
(F8.982456140350877
L4201528L
tp119
sL4215056L
(F2.0
L4215084L
tp120
sL4210961L
(F11.182527301092042
L4210992L
tp121
sL4212112L
(F8.0
L4212150L
tp122
sL4208917L
(F8.0
L4208929L
tp123
sL4209936L
(F15.43580080753701
L4209941L
tp124
sL4219159L
(F4.0
L4219194L
tp125
sL4206872L
(F2.0
L4206881L
tp126
sL4209248L
(F0.892430278884462
L4209256L
tp127
sL4202782L
(F3.1954751572480373
L4202817L
tp128
sL4213023L
(F2.0
L4213032L
tp129
sL4217120L
(F64.0
L4217125L
tp130
sL4206881L
(F4.0
L4206889L
tp131
sL4202080L
(F35.92982456140351
L4202095L
tp132
sL4208935L
(F32.0
L4208941L
tp133
sL4200744L
(F0.10526315789473684
L4200752L
tp134
sL4206889L
(F8.0
L4206911L
tp135
sL4208941L
(F64.0
L4208947L
tp136
sL4200752L
(F0.21052631578947367
L4200761L
tp137
sL4219272L
(F4.0
L4219317L
tp138
sL4208947L
(F128.0
L4208953L
tp139
sL4217141L
(F605.090909090909
L4217143L
tp140
sL4215177L
(F2.0
L4215184L
tp141
sL4200761L
(F0.42105263157894735
L4200773L
tp142
sL4219194L
(F8.0
L4219214L
tp143
sL4221247L
(F4.0
L4221275L
tp144
sL4213056L
(F1.0
L4213066L
tp145
sL4216544L
(F1.0
L4216583L
tp146
sL4200773L
(F0.5
L4200782L
tp147
sL4205908L
(F1.0
L4205963L
tp148
sL4200782L
(F1.0
L4200806L
tp149
sL4213072L
(F1.0
L4213094L
tp150
sL4201528L
(F17.964912280701753
L4201537L
tp151
sL4217170L
(F605.090909090909
L4217179L
tp152
sL4203235L
(F6.390950314496075
L4203239L
tp153
sL4202837L
(F3.1954751572480373
L4202876L
tp154
sL10333924L
(F1.0
L10333928L
tp155
sL4217179L
(F1210.181818181818
L4217186L
tp156
sL4208992L
(F1.0
L4209133L
tp157
sL4210064L
(F15.43580080753701
L4210075L
tp158
sL4217186L
(F605.090909090909
L4217205L
tp159
sL4200806L
(F0.4
L4200811L
tp160
sL4209724L
(F0.9375143053330282
L4209736L
tp161
sL4200811L
(F0.5714285714285714
L4200828L
tp162
sL4200850L
(F1.9393939393939394
L4200863L
tp163
sL4214504L
(F20.0
L4214559L
tp164
sL4215184L
(F0.6666666666666666
L4215195L
tp165
sL4219252L
(F8.0
L4219272L
tp166
sL4217205L
(F1210.181818181818
L4217213L
tp167
sL4211062L
(F10.412928999455238
L4211073L
tp168
sL4202217L
(F1.226797109952716
L4202236L
tp169
sL4213112L
(F0.6666666666666666
L4213130L
tp170
sL4206971L
(F4.571428571428571
L4206976L
tp171
sL4200828L
(F0.48484848484848486
L4200841L
tp172
sL4217213L
(F605.090909090909
L4217237L
tp173
sL4206976L
(F0.9411764705882353
L4206981L
tp174
sL4200512L
(F1.0
L4200740L
tp175
sL4206981L
(F1.8823529411764706
L4206999L
tp176
sL4201537L
(F35.92982456140351
L4201566L
tp177
sL4211080L
(F1.735488166575873
L4211088L
tp178
sL4200841L
(F0.9696969696969697
L4200850L
tp179
sL4213130L
(F1.0
L4213144L
tp180
sL4220436L
(F0.8996266198111136
L4220460L
tp181
sL4211088L
(F1.8159765655925892
L4211110L
tp182
sL4216208L
(F1.0
L4216208L
tp183
sL4217237L
(F7.947462686567165
L4217244L
tp184
sL4206432L
(F2.6666666666666665
L4206448L
tp185
sL4206999L
(F1.2549019607843137
L4207016L
tp186
sL4213144L
(F2.0
L4213171L
tp187
sL4217504L
(F605.090909090909
L4217527L
tp188
sL4217244L
(F3.9737313432835824
L4217252L
tp189
sL4200863L
(F0.7757575757575758
L4200887L
tp190
sL4215200L
(F1.0
L4215209L
tp191
sL10333936L
(F1.0
L10333940L
tp192
sL4215195L
(F1.0
L4215200L
tp193
sL4217252L
(F3.9737313432835824
L4217257L
tp194
sL4211110L
(F1.2897668167990868
L4211181L
tp195
sL4207016L
(F0.8258064516129032
L4207036L
tp196
sL4217257L
(F7.947462686567165
L4217272L
tp197
sL4210418L
(F2.622376563058235
L4210427L
tp198
sL4215216L
(F1.6
L4215241L
tp199
sL4213171L
(F1.0
L4213180L
tp200
sL4219317L
(F8.0
L4219342L
tp201
sL4200887L
(F1.0343434343434343
L4200918L
tp202
sL4217272L
(F605.090909090909
L4217296L
tp203
sL4219636L
(F2.0
L4219656L
tp204
sL4202938L
(F6.390950314496075
L4202958L
tp205
sL4213180L
(F2.0
L4213199L
tp206
sL4211504L
(F7.693386350037333
L4211519L
tp207
sL4221353L
(F4.0
L4221375L
tp208
sL4207041L
(F0.6772486772486772
L4207046L
tp209
sL4200320L
(F1.0
L4200320L
tp210
sL4219824L
(F8.0
L4219846L
tp211
sL4205302L
(F1.7777777777777777
L4205377L
tp212
sL4207046L
(F1.3544973544973544
L4207051L
tp213
sL4215241L
(F1.0666666666666667
L4215251L
tp214
sL4207051L
(F0.5417989417989418
L4207069L
tp215
sL4202958L
(F3.1954751572480373
L4202999L
tp216
sL4213199L
(F1.0
L4213214L
tp217
sL4217296L
(F7.947462686567165
L4217303L
tp218
sL4220664L
(F0.9827844760362305
L4220670L
tp219
sL4215251L
(F0.8
L4215259L
tp220
sL4200918L
(F0.6206060606060606
L4200927L
tp221
sL4217303L
(F3.9737313432835824
L4217315L
tp222
sL4215259L
(F1.6
L4215283L
tp223
sL4208368L
(F1.0
L4208393L
tp224
sL4200927L
(F0.8274747474747475
L4200956L
tp225
sL4213216L
(F1.0
L4213233L
tp226
sL4215888L
(F1.0
L4215938L
tp227
sL4217315L
(F3.9737313432835824
L4217320L
tp228
sL4207077L
(F1.7777777777777777
L4207085L
tp229
sL4200240L
(F1.0
L4200240L
tp230
sL4217320L
(F7.947462686567165
L4217335L
tp231
sL4202236L
(F0.585373070129003
L4202245L
tp232
sL4207085L
(F2.56
L4207099L
tp233
sL4219376L
(F1.0
L4219394L
tp234
sL4215283L
(F3.2
L4215288L
tp235
sL4202999L
(F6.390950314496075
L4203095L
tp236
sL4215288L
(F0.9142857142857143
L4215301L
tp237
sL4207099L
(F2.4150943396226414
L4207103L
tp238
sL4200956L
(F0.4964848484848485
L4201002L
tp239
sL4207104L
(F1.3544973544973544
L4207116L
tp240
sL4204288L
(F1.0
L4204314L
tp241
sL4219394L
(F0.8
L4219407L
tp242
sL4207116L
(F1.3544973544973544
L4207121L
tp243
sL4217358L
(F1.9934112009583707
L4217367L
tp244
sL4213264L
(F1.0
L4213286L
tp245
sL4221462L
(F1.0
L4221477L
tp246
sL4217367L
(F3.9868224019167413
L4217374L
tp247
sL4207128L
(F1.3544973544973544
L4207140L
tp248
sL4219418L
(F4.0
L4219425L
tp249
sL4217374L
(F1.9934112009583707
L4217383L
tp250
sL4209184L
(F1.3493975903614457
L4209222L
tp251
sL4219425L
(F8.0
L4219459L
tp252
sL4215333L
(F2.0
L4215388L
tp253
sL4211238L
(F1.5682167018196362
L4211248L
tp254
sL4217383L
(F3.9868224019167413
L4217388L
tp255
sL4207144L
(F3.764705882352941
L4207160L
tp256
sL4201002L
(F0.992969696969697
L4201011L
tp257
sL4217388L
(F605.090909090909
L4217413L
tp258
sL4211248L
(F3.1364334036392725
L4211258L
tp259
sL4221328L
(F2.0
L4221353L
tp260
sL4201011L
(F1.985939393939394
L4201024L
tp261
sL4201566L
(F17.964912280701753
L4201582L
tp262
sL4207160L
(F1.147982062780269
L4207175L
tp263
sL4211258L
(F6.272866807278545
L4211265L
tp264
sL4201024L
(F0.5674112554112554
L4201061L
tp265
sL4211265L
(F12.54573361455709
L4211272L
tp266
sL4219459L
(F16.0
L4219471L
tp267
sL4217413L
(F7.947462686567165
L4217420L
tp268
sL4209222L
(F0.8057553956834532
L4209238L
tp269
sL4211272L
(F25.09146722911418
L4211278L
tp270
sL4217420L
(F3.9737313432835824
L4217433L
tp271
sL4211278L
(F50.18293445822836
L4211296L
tp272
sL4219471L
(F8.0
L4219477L
tp273
sL4207184L
(F4.0
L4207191L
tp274
sL4203960L
(F1.3333333333333333
L4203965L
tp275
sL4210145L
(F3.983869199397754
L4210155L
tp276
sL4209238L
(F1.6115107913669064
L4209248L
tp277
sL4203095L
(F12.78190062899215
L4203235L
tp278
sL4217433L
(F3.9737313432835824
L4217438L
tp279
sL4215388L
(F1.0
L4215445L
tp280
sL4217438L
(F7.947462686567165
L4217453L
tp281
sL4211296L
(F1.9233465875093332
L4211309L
tp282
sL10333968L
(F1.0
L10333972L
tp283
sL4215312L
(F1.0
L4215333L
tp284
sL4201061L
(F1.1348225108225107
L4201120L
tp285
sL4201894L
(F0.5614035087719298
L4201912L
tp286
sL4209256L
(F0.6989079563182526
L4209265L
tp287
sL4207036L
(F0.6772486772486772
L4207041L
tp288
sL4219498L
(F4.0
L4219506L
tp289
sL4210555L
(F28.0
L4210564L
tp290
sL4211309L
(F3.8466931750186664
L4211334L
tp291
sL4207216L
(F1.0
L4207232L
tp292
sL4209265L
(F1.3978159126365053
L4209276L
tp293
sL4202259L
(F1.170746140258006
L4202275L
tp294
sL4206288L
(F1.0
L4206342L
tp295
sL4210208L
(F15.43580080753701
L4210219L
tp296
sL4219512L
(F2.0
L4219524L
tp297
sL4204360L
(F1.6
L4204369L
tp298
sL4209276L
(F0.9318772750910034
L4209283L
tp299
sL4206357L
(F2.0
L4206397L
tp300
sL4207232L
(F2.0
L4207237L
tp301
sL10333632L
(F1.0
L10333636L
tp302
sL4209283L
(F0.48236877523553157
L4209297L
tp303
sL4219524L
(F1.3333333333333333
L4219529L
tp304
sL4207237L
(F4.0
L4207243L
tp305
sL4211334L
(F2.5644621166791106
L4211343L
tp306
sL4210113L
(F123.48640646029608
L4210127L
tp307
sL4217480L
(F1210.181818181818
L4217493L
tp308
sL4207243L
(F8.0
L4207250L
tp309
sL4211343L
(F1.614042016365083
L4211390L
tp310
sL4219536L
(F1.0
L4219578L
tp311
sL4209297L
(F0.9647375504710631
L4209308L
tp312
sL4217493L
(F484.07272727272715
L4217504L
tp313
sL4207256L
(F2.6666666666666665
L4207279L
tp314
sL4209584L
(F0.3014144241367019
L4209589L
tp315
sL4201120L
(F0.531576983599111
L4201136L
tp316
sL4208752L
(F1.0
L4208791L
tp317
sL4218604L
(F4.0
L4218635L
tp318
sL4206448L
(F1.3333333333333333
L4206466L
tp319
sL4209777L
(F1.878314417203033
L4209785L
tp320
sL4209325L
(F30.87160161507402
L4209334L
tp321
sL4201728L
(F35.92982456140351
L4201779L
tp322
sL4201136L
(F0.6941564012668016
L4201157L
tp323
sL4218680L
(F5.333333333333333
L4218689L
tp324
sL4209334L
(F61.74320323014804
L4209348L
tp325
sL4217527L
(F1210.181818181818
L4217540L
tp326
sL4219578L
(F2.0
L4219598L
tp327
sL4211390L
(F3.228084032730166
L4211453L
tp328
sL4202613L
(F143.71929824561403
L4202630L
tp329
sL4207296L
(F1.0
L4207320L
tp330
sL4212512L
(F1.0
L4212527L
tp331
sL4217540L
(F605.090909090909
L4217564L
tp332
sL4201157L
(F1.3883128025336031
L4201251L
tp333
sL4205648L
(F6.4
L4205662L
tp334
sL4219598L
(F1.0
L4219636L
tp335
sL4213456L
(F1.0
L4213471L
tp336
sL4209361L
(F246.97281292059216
L4209369L
tp337
sL4202275L
(F0.5762522290545127
L4202282L
tp338
sL4215605L
(F4.0
L4215610L
tp339
sL4204080L
(F4.0
L4204101L
tp340
sL4209369L
(F493.9456258411843
L4209382L
tp341
sL4201995L
(F0.9696969696969697
L4202010L
tp342
sL4217564L
(F7.947462686567165
L4217571L
tp343
sL4210469L
(F2.622376563058235
L4210481L
tp344
sL4213472L
(F1.0
L4213472L
tp345
sL4219344L
(F8.0
L4219361L
tp346
sL4217571L
(F3.9737313432835824
L4217583L
tp347
sL4209382L
(F987.8912516823686
L4209398L
tp348
sL4203239L
(F12.78190062899215
L4203252L
tp349
sL4205292L
(F1.3333333333333333
L4205302L
tp350
sL4217583L
(F3.9737313432835824
L4217588L
tp351
sL4217588L
(F7.947462686567165
L4217603L
tp352
sL4216288L
(F1.0
L4216337L
tp353
sL4209398L
(F1975.7825033647373
L4209409L
tp354
sL4211453L
(F0.511116669461316
L4211463L
tp355
sL4206400L
(F1.0
L4206416L
tp356
sL4209409L
(F3951.5650067294746
L4209414L
tp357
sL4217603L
(F605.090909090909
L4217618L
tp358
sL4209414L
(F7903.130013458949
L4209423L
tp359
sL4211463L
(F1.022233338922632
L4211472L
tp360
sL4219656L
(F1.0
L4219697L
tp361
sL4209794L
(F4.500922255798438
L4209805L
tp362
sL4209423L
(F3951.5650067294746
L4209432L
tp363
sL4211472L
(F30.87160161507402
L4211486L
tp364
sL4210136L
(F1.991934599698877
L4210145L
tp365
sL4207378L
(F2.0
L4207383L
tp366
sL4204423L
(F5.818181818181818
L4204428L
tp367
sL4209432L
(F7903.130013458949
L4209442L
tp368
sL4202287L
(F0.4725389324875417
L4202299L
tp369
sL4217629L
(F605.090909090909
L4217652L
tp370
sL4211486L
(F61.74320323014804
L4211495L
tp371
sL4215584L
(F1.0
L4215584L
tp372
sL4212528L
(F1.0
L4212580L
tp373
sL4209442L
(F3951.5650067294746
L4209451L
tp374
sL4201251L
(F2.7766256050672062
L4201260L
tp375
sL4210481L
(F0.5673221398741324
L4210494L
tp376
sL4209451L
(F7903.130013458949
L4209461L
tp377
sL4201260L
(F5.5532512101344125
L4201276L
tp378
sL4215598L
(F1.0
L4215600L
tp379
sL4215600L
(F2.0
L4215605L
tp380
sL4219697L
(F2.0
L4219717L
tp381
sL4207410L
(F1.1428571428571428
L4207413L
tp382
sL4217652L
(F1.9934112009583707
L4217657L
tp383
sL4209461L
(F3951.5650067294746
L4209470L
tp384
sL4217993L
(F1.0
L4218030L
tp385
sL4217657L
(F3.9868224019167413
L4217664L
tp386
sL4203322L
(F8.252410221701046
L4203327L
tp387
sL4201276L
(F1.8510837367114708
L4201293L
tp388
sL4209470L
(F7903.130013458949
L4209480L
tp389
sL4207413L
(F1.0
L4207427L
tp390
sL4211520L
(F30.87160161507402
L4211533L
tp391
sL4207072L
(F8.0
L4207077L
tp392
sL4207427L
(F2.0
L4207438L
tp393
sL4203332L
(F33.009640886804185
L4203340L
tp394
sL4219717L
(F1.0
L4219770L
tp395
sL4220928L
(F1.0
L4220928L
tp396
sL4218337L
(F4.0
L4218379L
tp397
sL4209480L
(F3951.5650067294746
L4209496L
tp398
sL4217673L
(F3.9868224019167413
L4217678L
tp399
sL4203340L
(F2.316074290125536
L4203361L
tp400
sL4201293L
(F3.7021674734229415
L4201298L
tp401
sL4207438L
(F0.6666666666666666
L4207443L
tp402
sL4211536L
(F2.0
L4211541L
tp403
sL4215633L
(F2.0
L4215642L
tp404
sL4207443L
(F1.3333333333333333
L4207459L
tp405
sL4211541L
(F3.6319531311851785
L4211603L
tp406
sL4204357L
(F8.0
L4204360L
tp407
sL4205399L
(F1.7777777777777777
L4205506L
tp408
sL4201304L
(F0.14035087719298245
L4201339L
tp409
sL4215642L
(F2.0
L4215648L
tp410
sL4209503L
(F0.3046558516247798
L4209513L
tp411
sL4215648L
(F1.0
L4215653L
tp412
sL4203361L
(F4.632148580251072
L4203378L
tp413
sL4207459L
(F2.6666666666666665
L4207651L
tp414
sL4217702L
(F74.47272727272727
L4217717L
tp415
sL4209513L
(F0.18437977526464158
L4209523L
tp416
sL4215664L
(F1.0
L4215664L
tp417
sL4203378L
(F1.0651583857493458
L4203396L
tp418
sL4209523L
(F0.36875955052928316
L4209546L
tp419
sL4217717L
(F3.9868224019167413
L4217735L
tp420
sL4215673L
(F1.0
L4215686L
tp421
sL4219770L
(F2.0
L4219774L
tp422
sL4203327L
(F16.504820443402092
L4203332L
tp423
sL4219774L
(F4.0
L4219784L
tp424
sL4213632L
(F1.0
L4213648L
tp425
sL4215616L
(F1.0
L4215633L
tp426
sL4203396L
(F1.0651583857493458
L4203405L
tp427
sL4203670L
(F4.260633542997383
L4203692L
tp428
sL4201350L
(F1.1228070175438596
L4201359L
tp429
sL4205377L
(F3.5555555555555554
L4205399L
tp430
sL4219784L
(F1.1428571428571428
L4219791L
tp431
sL4209546L
(F0.21725007825704393
L4209551L
tp432
sL4203405L
(F2.1303167714986917
L4203426L
tp433
sL4201359L
(F2.245614035087719
L4201366L
tp434
sL4213648L
(F1.0
L4213665L
tp435
sL4201624L
(F8.982456140350877
L4201636L
tp436
sL4211603L
(F56.0
L4211633L
tp437
sL4215701L
(F4.0
L4215710L
tp438
sL4201366L
(F4.491228070175438
L4201375L
tp439
sL4217752L
(F3.9868224019167413
L4217767L
tp440
sL4219801L
(F4.0
L4219819L
tp441
sL4209562L
(F0.474997385584371
L4209567L
tp442
sL4209133L
(F2.0
L4209148L
tp443
sL4215710L
(F2.0
L4215715L
tp444
sL4201375L
(F8.982456140350877
L4201384L
tp445
sL4218135L
(F8.0
L4218155L
tp446
sL4210160L
(F1.9525640725520699
L4210174L
tp447
sL4203426L
(F4.260633542997383
L4203453L
tp448
sL4215715L
(F4.0
L4215720L
tp449
sL4204496L
(F1.0
L4204517L
tp450
sL4217767L
(F806.7878787878786
L4217780L
tp451
sL4201384L
(F17.964912280701753
L4201393L
tp452
sL4204428L
(F11.636363636363637
L4204432L
tp453
sL4210503L
(F1.1346442797482648
L4210512L
tp454
sL4209580L
(F0.35490048711088273
L4209584L
tp455
sL4208929L
(F16.0
L4208935L
tp456
sL4209952L
(F0.9039020814779202
L4209963L
tp457
sL4213680L
(F1.0
L4213690L
tp458
sL4201393L
(F0.7178408692604277
L4201403L
tp459
sL4208520L
(F8.0
L4208538L
tp460
sL4217780L
(F2.0
L4217805L
tp461
sL4209589L
(F0.6028288482734038
L4209598L
tp462
sL4199984L
(F2.0
L4199984L
tp463
sL10333920L
(F1.0
L10333924L
tp464
sL4209598L
(F0.3014144241367019
L4209618L
tp465
sL4201408L
(F1.1228070175438596
L4201417L
tp466
sL4209824L
(F0.2805180794738268
L4209830L
tp467
sL4205506L
(F7.111111111111111
L4205548L
tp468
sL4215748L
(F2.0
L4215757L
tp469
sL4203463L
(F1.0
L4203470L
tp470
sL4201417L
(F2.245614035087719
L4201426L
tp471
sL4217335L
(F605.090909090909
L4217358L
tp472
sL4215757L
(F2.0
L4215763L
tp473
sL4203470L
(F0.6605386228027738
L4203522L
tp474
sL4211663L
(F2.8803777281060854
L4211674L
tp475
sL4217808L
(F1.0
L4217854L
tp476
sL4221432L
(F2.0
L4221440L
tp477
sL4201426L
(F4.491228070175438
L4201437L
tp478
sL4217678L
(F186.1818181818182
L4217702L
tp479
sL4219488L
(F1.0
L4219493L
tp480
sL4201636L
(F35.92982456140351
L4201673L
tp481
sL4211674L
(F5.760755456212171
L4211679L
tp482
sL4211181L
(F0.7841083509098181
L4211238L
tp483
sL4201437L
(F8.982456140350877
L4201442L
tp484
sL4211680L
(F493.9456258411843
L4211694L
tp485
sL4210512L
(F0.6555941407645588
L4210516L
tp486
sL4201442L
(F17.964912280701753
L4201449L
tp487
sL4201449L
(F35.92982456140351
L4201507L
tp488
sL4215787L
(F2.0
L4215807L
tp489
sL4209645L
(F2.0089686098654704
L4209652L
tp490
sL4211694L
(F1.5682167018196362
L4211760L
tp491
sL4205552L
(F1.0
L4205562L
tp492
sL4209652L
(F4.017937219730941
L4209663L
tp493
sL4213296L
(F1.0
L4213314L
tp494
sL4210516L
(F1.3111882815291176
L4210521L
tp495
sL4217854L
(F2.0
L4217874L
tp496
sL4209663L
(F1.1479820627802688
L4209670L
tp497
sL4205568L
(F1.0
L4205617L
tp498
sL4209152L
(F14.0
L4209184L
tp499
sL4203522L
(F1.654949494949495
L4203554L
tp500
sL4208959L
(F512.0
L4208965L
tp501
sL4209670L
(F2.2959641255605376
L4209678L
tp502
sL4210296L
(F0.9079882827962946
L4210308L
tp503
sL4215818L
(F1.0
L4215833L
tp504
sL4209678L
(F4.591928251121075
L4209690L
tp505
sL4201840L
(F8.982456140350877
L4201847L
tp506
sL4217874L
(F1.0
L4217912L
tp507
sL4206000L
(F1.0
L4206071L
tp508
sL4204377L
(F1.2307692307692308
L4204382L
tp509
sL4219929L
(F2.0
L4219934L
tp510
sL4209690L
(F9.18385650224215
L4209704L
tp511
sL4215840L
(F2.0
L4215845L
tp512
sL4203554L
(F2.0686868686868687
L4203588L
tp513
sL4207651L
(F1.3333333333333333
L4207687L
tp514
sL4208400L
(F0.8421052631578947
L4208406L
tp515
sL4215845L
(F4.0
L4215868L
tp516
sL4209704L
(F1.6423416198877305
L4209709L
tp517
sL4221072L
(F2.6666666666666665
L4221097L
tp518
sL4209709L
(F3.284683239775461
L4209712L
tp519
sL4199472L
(F1.0
L4199488L
tp520
sL4205617L
(F2.0
L4205638L
tp521
sL4206342L
(F1.0
L4206357L
tp522
sL4210526L
(F5.24475312611647
L4210530L
tp523
sL4217912L
(F2.0
L4217932L
tp524
sL4219962L
(F0.3444115112148157
L4219971L
tp525
sL4215868L
(F4.0
L4215874L
tp526
sL4199488L
(F2.0
L4199493L
tp527
sL4208480L
(F1.0
L4208489L
tp528
sL4219971L
(F0.6888230224296314
L4219986L
tp529
sL4203588L
(F6.779231904367067
L4203605L
tp530
sL4213094L
(F2.0
L4213112L
tp531
sL4207687L
(F2.6666666666666665
L4207709L
tp532
sL4209736L
(F1.8750286106660563
L4209750L
tp533
sL4217932L
(F1.0
L4217973L
tp534
sL4202338L
(F0.20190785726158753
L4202378L
tp535
sL4213840L
(F1.0
L4213852L
tp536
sL4203888L
(F1.0
L4203897L
tp537
sL4219986L
(F1.377646044859263
L4219992L
tp538
sL4204387L
(F5.333333333333333
L4204389L
tp539
sL4203605L
(F4.632148580251072
L4203621L
tp540
sL4219992L
(F2.755292089718526
L4219999L
tp541
sL4217143L
(F0.6583255031897535
L4217170L
tp542
sL4207709L
(F1.3333333333333333
L4207748L
tp543
sL4205662L
(F12.8
L4205704L
tp544
sL4219999L
(F1.1021168358874105
L4220012L
tp545
sL4209760L
(F15.43580080753701
L4209777L
tp546
sL4219408L
(F2.0
L4219418L
tp547
sL4206480L
(F1.0
L4206488L
tp548
sL4217019L
(F186.1818181818182
L4217027L
tp549
sL4203621L
(F6.390950314496075
L4203645L
tp550
sL4218732L
(F2.0
L4218745L
tp551
sL4220012L
(F0.42389109072592707
L4220050L
tp552
sL4201582L
(F0.9729216152019002
L4201591L
tp553
sL4211825L
(F6.272866807278545
L4211899L
tp554
sL4217973L
(F2.0
L4217993L
tp555
sL4201591L
(F1.9458432304038005
L4201614L
tp556
sL4209785L
(F3.1767769098664895
L4209794L
tp557
sL4206208L
(F0.6530612244897959
L4206225L
tp558
sL4215999L
(F2.0
L4216019L
tp559
sL4210992L
(F1.3016161249319047
L4211001L
tp560
sL4203645L
(F12.78190062899215
L4203670L
tp561
sL4213888L
(F1.0
L4213907L
tp562
sL4215938L
(F2.0
L4215958L
tp563
sL4207748L
(F2.6666666666666665
L4207769L
tp564
sL4205704L
(F0.4444444444444444
L4205720L
tp565
sL10334060L
(F1.0
L10334064L
tp566
sL4209805L
(F9.001844511596875
L4209808L
tp567
sL4201614L
(F8.982456140350877
L4201624L
tp568
sL4209808L
(F1.878314417203033
L4209819L
tp569
sL4208152L
(F1.28
L4208181L
tp570
sL4220050L
(F0.8477821814518541
L4220068L
tp571
sL4214032L
(F1.0
L4214032L
tp572
sL4215958L
(F1.0
L4215999L
tp573
sL4205720L
(F0.8
L4205739L
tp574
sL4207769L
(F1.3333333333333333
L4207811L
tp575
sL4209819L
(F3.756628834406066
L4209824L
tp576
sL4202876L
(F6.390950314496075
L4202896L
tp577
sL4213920L
(F1.0
L4213930L
tp578
sL4210544L
(F14.0
L4210555L
tp579
sL4220068L
(F2.0
L4220086L
tp580
sL4209830L
(F0.2618310756290726
L4209894L
tp581
sL4220326L
(F2.2407002188183807
L4220335L
tp582
sL4221008L
(F1.3333333333333333
L4221046L
tp583
sL4205739L
(F1.6
L4205752L
tp584
sL4203692L
(F3.878787878787879
L4203707L
tp585
sL10333928L
(F1.0
L10333932L
tp586
sL4218030L
(F2.0
L4218043L
tp587
sL4213936L
(F1.0
L4213954L
tp588
sL4204432L
(F0.5953488372093023
L4204462L
tp589
sL4220086L
(F4.0
L4220095L
tp590
sL4205752L
(F3.2
L4205760L
tp591
sL4208256L
(F1.0
L4208266L
tp592
sL4218043L
(F4.0
L4218077L
tp593
sL4220095L
(F2.6666666666666665
L4220112L
tp594
sL4205760L
(F6.4
L4205781L
tp595
sL4211905L
(F25.09146722911418
L4211907L
tp596
sL4207811L
(F2.6666666666666665
L4207832L
tp597
sL4203719L
(F1.0
L4203761L
tp598
sL4211912L
(F6.900021104195975
L4211919L
tp599
sL4201673L
(F2.245614035087719
L4201682L
tp600
sL4208288L
(F1.0
L4208300L
tp601
sL4217037L
(F23.272727272727273
L4217047L
tp602
sL4213968L
(F1.0
L4213985L
tp603
sL4208504L
(F4.0
L4208520L
tp604
sL4201682L
(F4.491228070175438
L4201691L
tp605
sL4216019L
(F1.0
L4216035L
tp606
sL4205781L
(F12.8
L4205784L
tp607
sL4204409L
(F1.4545454545454546
L4204414L
tp608
sL4205784L
(F0.8311688311688312
L4205798L
tp609
sL4211919L
(F3.4500105520979876
L4211933L
tp610
sL4211933L
(F0.9261760175967629
L4211943L
tp611
sL4206416L
(F2.0
L4206431L
tp612
sL4220112L
(F2.2857142857142856
L4220137L
tp613
sL4201339L
(F0.2807017543859649
L4201348L
tp614
sL4205798L
(F0.9078014184397163
L4205803L
tp615
sL4211943L
(F28.0
L4211970L
tp616
sL4220137L
(F1.7777777777777777
L4220161L
tp617
sL4205803L
(F0.5871559633027523
L4205818L
tp618
sL4201712L
(F17.964912280701753
L4201728L
tp619
sL4218097L
(F4.0
L4218135L
tp620
sL4216055L
(F4.0
L4216066L
tp621
sL4207867L
(F2.6666666666666665
L4208109L
tp622
sL4209917L
(F0.4093406000964894
L4209935L
tp623
sL4213032L
(F1.0
L4213052L
tp624
sL4203776L
(F1.0
L4203797L
tp625
sL4220161L
(F3.5555555555555554
L4220183L
tp626
sL4211970L
(F0.4093406000964894
L4211975L
tp627
sL4210219L
(F30.87160161507402
L4210230L
tp628
sL4211975L
(F28.0
L4212002L
tp629
sL4220460L
(F2.4820481745190124
L4220511L
tp630
sL4206466L
(F0.9411764705882353
L4206478L
tp631
sL4205872L
(F1.0
L4205893L
tp632
sL4199696L
(F1.2307692307692308
L4199696L
tp633
sL4207832L
(F1.3333333333333333
L4207867L
tp634
sL4214192L
(F20.0
L4214315L
tp635
sL4203797L
(F1.0
L4203799L
tp636
sL4220183L
(F7.111111111111111
L4220189L
tp637
sL4201348L
(F0.5614035087719298
L4201350L
tp638
sL4204401L
(F5.818181818181818
L4204409L
tp639
sL4220189L
(F3.5555555555555554
L4220250L
tp640
sL10334000L
(F1.0
L10334004L
tp641
sL4216096L
(F2.0
L4216101L
tp642
sL4221488L
(F1.0
L4221490L
tp643
sL4205858L
(F2.0
L4205869L
tp644
sL4201691L
(F8.982456140350877
L4201712L
tp645
sL4215686L
(F1.0
L4215688L
tp646
sL4217735L
(F403.3939393939393
L4217752L
tp647
sL4218077L
(F8.0
L4218097L
tp648
sL4212016L
(F1.0
L4212016L
tp649
sL10334048L
(F1.0
L10334052L
tp650
sL4201779L
(F4.491228070175438
L4201790L
tp651
sL10333728L
(F1.0
L10333732L
tp652
sL4209976L
(F15.43580080753701
L4209983L
tp653
sL4212276L
(F4.0
L4212293L
tp654
sL4208320L
(F2.6666666666666665
L4208329L
tp655
sL4216124L
(F4.0
L4216129L
tp656
sL4201790L
(F8.982456140350877
L4201816L
tp657
sL4209984L
(F15.43580080753701
L4209991L
tp658
sL4210244L
(F61.74320323014804
L4210253L
tp659
sL4205893L
(F2.0
L4205908L
tp660
sL4220812L
(F4.964096349038025
L4220866L
tp661
sL4214090L
(F1.0
L4214174L
tp662
sL4214944L
(F20.0
L4215053L
tp663
sL4219106L
(F8.0
L4219126L
tp664
sL4210000L
(F15.43580080753701
L4210007L
tp665
sL4208184L
(F1.1428571428571428
L4208201L
tp666
sL4203858L
(F1.0
L4203860L
tp667
sL4216035L
(F2.0
L4216055L
tp668
sL4218196L
(F8.0
L4218216L
tp669
sL4204382L
(F2.6666666666666665
L4204387L
tp670
sL4201816L
(F1.7996485061511422
L4201840L
tp671
sL4220250L
(F7.111111111111111
L4220274L
tp672
sL4209551L
(F0.2374986927921855
L4209562L
tp673
sL4203870L
(F4.0
L4203881L
tp674
sL4210016L
(F15.43580080753701
L4210023L
tp675
sL4202384L
(F1.6948079760917667
L4202393L
tp676
sL4204024L
(F2.0
L4204033L
tp677
sL4209894L
(F0.2046703000482447
L4209917L
tp678
sL4218216L
(F4.0
L4218255L
tp679
sL4212076L
(F2.0
L4212085L
tp680
sL4210032L
(F15.43580080753701
L4210039L
tp681
sL4220274L
(F14.222222222222221
L4220288L
tp682
sL4212085L
(F4.0
L4212112L
tp683
sL4206080L
(F0.5714285714285714
L4206134L
tp684
sL4201847L
(F17.964912280701753
L4201876L
tp685
sL4203897L
(F2.0
L4203914L
tp686
sL4216190L
(F2.0
L4216195L
tp687
sL4220288L
(F0.6368159203980099
L4220302L
tp688
sL4221504L
(F1.0
L4221516L
tp689
sL4215696L
(F2.0
L4215701L
tp690
sL4216195L
(F2.0
L4216200L
tp691
sL4203914L
(F1.0
L4203916L
tp692
sL4220302L
(F0.7781155015197568
L4220313L
tp693
sL4218255L
(F8.0
L4218275L
tp694
sL4205968L
(F2.0
L4205985L
tp695
sL4201876L
(F2.245614035087719
L4201894L
tp696
sL4214401L
(F1.8181818181818181
L4214493L
tp697
sL4220313L
(F0.5601750547045952
L4220318L
tp698
sL4203930L
(F2.0
L4203940L
tp699
sL4210075L
(F30.87160161507402
L4210086L
tp700
sL4220318L
(F1.1203501094091903
L4220326L
tp701
sL4214000L
(F1.0
L4214022L
tp702
sL4218275L
(F4.0
L4218317L
tp703
sL4203940L
(F4.0
L4203957L
tp704
sL4210086L
(F61.74320323014804
L4210091L
tp705
sL4213856L
(F1.0
L4213879L
tp706
sL4210091L
(F123.48640646029608
L4210100L
tp707
sL4220335L
(F4.481400437636761
L4220375L
tp708
sL4199856L
(F1.3061224489795917
L4199856L
tp709
sL4199808L
(F1.3333333333333333
L4199808L
tp710
sL4209712L
(F1.6423416198877305
L4209724L
tp711
sL4210100L
(F61.74320323014804
L4210113L
tp712
sL4212150L
(F4.0
L4212186L
tp713
sL4208201L
(F2.0
L4208220L
tp714
sL4201912L
(F4.491228070175438
L4201938L
tp715
sL4209567L
(F0.949994771168742
L4209576L
tp716
sL4216256L
(F1.0
L4216278L
tp717
sL10334112L
(F1.0
L10334116L
tp718
sL10333636L
(F1.0
L10333640L
tp719
sL10333640L
(F1.0
L10333644L
tp720
sL4221516L
(F2.0
L4221519L
tp721
sL10333644L
(F1.0
L10333648L
tp722
sL4218317L
(F8.0
L4218337L
tp723
sL10333888L
(F1.0
L10333892L
tp724
sL4210127L
(F246.97281292059216
L4210136L
tp725
sL10333648L
(F1.0
L10333652L
tp726
sL4216176L
(F1.0
L4216190L
tp727
sL4201938L
(F8.982456140350877
L4201995L
tp728
sL10333652L
(F1.0
L10333656L
tp729
sL4206134L
(F0.8
L4206139L
tp730
sL4220375L
(F8.962800875273523
L4220378L
tp731
sL10333656L
(F1.0
L10333660L
tp732
sL4220378L
(F1.3828494260634707
L4220401L
tp733
sL4221519L
(F1.0
L4221526L
tp734
sL10333660L
(F1.0
L10333664L
tp735
sL10333664L
(F1.0
L10333668L
tp736
sL4213328L
(F1.0
L4213328L
tp737
sL10333668L
(F1.0
L10333672L
tp738
sL4204005L
(F2.0
L4204015L
tp739
sL4212624L
(F1.0
L4212651L
tp740
sL10333672L
(F1.0
L10333676L
tp741
sL4210155L
(F1.991934599698877
L4210160L
tp742
sL10333676L
(F1.0
L10333680L
tp743
sL4208109L
(F1.3333333333333333
L4208147L
tp744
sL4204015L
(F2.0
L4204020L
tp745
sL4199920L
(F1.0
L4199920L
tp746
sL4220401L
(F3.270259481037924
L4220436L
tp747
sL10333684L
(F1.0
L10333688L
tp748
sL4206071L
(F2.0
L4206076L
tp749
sL10333688L
(F1.0
L10333692L
tp750
sL4218155L
(F4.0
L4218196L
tp751
sL10333692L
(F1.0
L10333696L
tp752
sL4210176L
(F15.43580080753701
L4210183L
tp753
sL4204033L
(F4.0
L4204043L
tp754
sL4219792L
(F2.0
L4219801L
tp755
sL10333700L
(F1.0
L10333704L
tp756
sL4221526L
(F2.0
L4221530L
tp757
sL4210183L
(F30.87160161507402
L4210190L
tp758
sL10333704L
(F1.0
L10333708L
tp759
sL4216928L
(F16.0
L4216938L
tp760
sL4218379L
(F8.0
L4218399L
tp761
sL10333708L
(F1.0
L10333712L
tp762
sL4216066L
(F1.0
L4216094L
tp763
sL4210190L
(F61.74320323014804
L4210199L
tp764
sL4214064L
(F2.0
L4214090L
tp765
sL10333712L
(F1.0
L10333716L
tp766
sL4208147L
(F2.6666666666666665
L4208152L
tp767
sL10333716L
(F1.0
L10333720L
tp768
sL4210199L
(F3.3490925550088337
L4210207L
tp769
sL10333720L
(F1.0
L10333724L
tp770
sL4202010L
(F1.9393939393939394
L4202033L
tp771
sL10333872L
(F1.0
L10333876L
tp772
sL10333724L
(F1.0
L10333728L
tp773
sL4214336L
(F20.0
L4214401L
tp774
sL4218399L
(F4.0
L4218441L
tp775
sL4216352L
(F1.0
L4216532L
tp776
sL4215728L
(F1.0
L4215748L
tp777
sL10333732L
(F1.0
L10333736L
tp778
sL4211633L
(F56.0
L4211663L
tp779
sL10333736L
(F1.0
L10333740L
tp780
sL4221532L
(F1.0
L4221541L
tp781
sL4214315L
(F4.0
L4214330L
tp782
sL10333740L
(F1.0
L10333744L
tp783
sL4210272L
(F123.48640646029608
L4210282L
tp784
sL4215088L
(F2.0
L4215158L
tp785
sL10333744L
(F1.0
L10333748L
tp786
sL4202033L
(F0.9696969696969697
L4202059L
tp787
sL10333748L
(F1.0
L10333752L
tp788
sL4210230L
(F61.74320323014804
L4210235L
tp789
sL10333752L
(F1.0
L10333756L
tp790
sL4210235L
(F123.48640646029608
L4210244L
tp791
sL10333756L
(F1.0
L10333760L
tp792
sL10333760L
(F1.0
L10333764L
tp793
sL4207200L
(F2.0
L4207210L
tp794
sL4206496L
(F1.0
L4206504L
tp795
sL10333764L
(F1.0
L10333768L
tp796
sL4212293L
(F8.0
L4212311L
tp797
sL4208225L
(F8.0
L4208231L
tp798
sL10333768L
(F1.0
L10333772L
tp799
sL4218441L
(F8.0
L4218461L
tp800
sL4202059L
(F8.982456140350877
L4202080L
tp801
sL10333772L
(F1.0
L10333776L
tp802
sL4210253L
(F123.48640646029608
L4210263L
tp803
sL10333776L
(F1.0
L10333780L
tp804
sL4208568L
(F32.0
L4208579L
tp805
sL10333780L
(F1.0
L10333784L
tp806
sL4213248L
(F1.0
L4213258L
tp807
sL4212311L
(F4.0
L4212383L
tp808
sL10333784L
(F1.0
L10333788L
tp809
sL10333788L
(F1.0
L10333792L
tp810
sL4218461L
(F4.0
L4218525L
tp811
sL4220511L
(F4.964096349038025
L4220552L
tp812
sL10333792L
(F1.0
L10333796L
tp813
sL4208912L
(F4.0
L4208917L
tp814
sL4210619L
(F28.0
L4210628L
tp815
sL10333796L
(F1.0
L10333800L
tp816
sL4208231L
(F16.0
L4208242L
tp817
sL10333800L
(F1.0
L10333804L
tp818
sL4210282L
(F61.74320323014804
L4210291L
tp819
sL10333804L
(F1.0
L10333808L
tp820
sL4203453L
(F2.1303167714986917
L4203458L
tp821
sL10333808L
(F1.0
L10333812L
tp822
sL4208242L
(F32.0
L4208251L
tp823
sL10333812L
(F1.0
L10333816L
tp824
sL4202101L
(F1.6357827476038338
L4202121L
tp825
sL4204152L
(F2.0
L4204192L
tp826
sL4208251L
(F32.0
L4208256L
tp827
sL10333820L
(F1.0
L10333824L
tp828
sL4208953L
(F256.0
L4208959L
tp829
sL4206157L
(F3.2
L4206208L
tp830
sL4209941L
(F1.4401888640530427
L4209952L
tp831
sL10333824L
(F1.0
L10333828L
tp832
sL4213696L
(F1.0
L4213696L
tp833
sL10334080L
(F1.0
L10334084L
tp834
sL4210308L
(F1.8159765655925892
L4210369L
tp835
sL10333832L
(F1.0
L10333836L
tp836
sL4203799L
(F2.0
L4203809L
tp837
sL10333836L
(F1.0
L10333840L
tp838
sL4203458L
(F4.260633542997383
L4203463L
tp839
sL4217453L
(F605.090909090909
L4217480L
tp840
sL10333840L
(F1.0
L10333844L
tp841
sL4206225L
(F1.3061224489795917
L4206251L
tp842
sL4205840L
(F3.2
L4205858L
tp843
sL10333844L
(F1.0
L10333848L
tp844
sL4204112L
(F1.0
L4204152L
tp845
sL4202137L
(F0.4237019940229417
L4202150L
tp846
sL4208272L
(F1.0
L4208281L
tp847
sL4202095L
(F8.982456140350877
L4202101L
tp848
sL10333852L
(F1.0
L10333856L
tp849
sL4218525L
(F8.0
L4218545L
tp850
sL4212383L
(F2.0
L4212409L
tp851
sL10333856L
(F1.0
L10333860L
tp852
sL10333860L
(F1.0
L10333864L
tp853
sL4202150L
(F0.8474039880458833
L4202167L
tp854
sL10333864L
(F1.0
L10333868L
tp855
sL4206251L
(F1.3061224489795917
L4206275L
tp856
sL10333868L
(F1.0
L10333872L
tp857
sL4200112L
(F1.0
L4200112L
tp858
sL4218545L
(F4.0
L4218584L
tp859
sL4203317L
(F4.126205110850523
L4203322L
tp860
sL10333876L
(F1.0
L10333880L
tp861
sL4202167L
(F1.9226626718765185
L4202177L
tp862
sL10333880L
(F1.0
L10333884L
tp863
sL10333696L
(F1.0
L10333700L
tp864
sL10333884L
(F1.0
L10333888L
tp865
sL4211001L
(F2.6032322498638094
L4211051L
tp866
sL4212416L
(F8.0
L4212439L
tp867
sL4210369L
(F0.9517755334069161
L4210379L
tp868
sL4219493L
(F2.0
L4219498L
tp869
sL4202181L
(F0.9007796741793491
L4202189L
tp870
sL4204230L
(F1.0
L4204260L
tp871
sL4203809L
(F4.0
L4203817L
tp872
sL10333896L
(F1.0
L10333900L
tp873
sL4208329L
(F1.3333333333333333
L4208349L
tp874
sL4210379L
(F0.9752920016837666
L4210394L
tp875
sL10333900L
(F1.0
L10333904L
tp876
sL4202189L
(F0.613398554976358
L4202217L
tp877
sL10333904L
(F1.0
L10333908L
tp878
sL4220625L
(F0.9660377358490566
L4220644L
tp879
sL10333908L
(F1.0
L10333912L
tp880
sL4212439L
(F2.0
L4212444L
tp881
sL10333912L
(F1.0
L10333916L
tp882
sL4214624L
(F20.0
L4214693L
tp883
sL4218696L
(F3.2
L4218699L
tp884
sL10333916L
(F1.0
L10333920L
tp885
sL4208349L
(F2.6666666666666665
L4208354L
tp886
sL4216101L
(F4.0
L4216124L
tp887
sL4214496L
(F20.0
L4214501L
tp888
sL4219856L
(F1.0
L4219929L
tp889
sL4214174L
(F2.0
L4214182L
tp890
sL4220644L
(F1.9320754716981132
L4220649L
tp891
sL4219936L
(F0.8157432878178718
L4219962L
tp892
sL4208360L
(F1.4545454545454546
L4208367L
tp893
sL4210409L
(F2.622376563058235
L4210414L
tp894
sL10333932L
(F1.0
L10333936L
tp895
sL4209618L
(F1.1487179487179486
L4209634L
tp896
sL4210414L
(F5.24475312611647
L4210418L
tp897
sL4221232L
(F2.0
L4221247L
tp898
sL4220656L
(F14.222222222222221
L4220664L
tp899
sL4217128L
(F28.689655172413794
L4217141L
tp900
sL4210048L
(F15.43580080753701
L4210055L
tp901
sL4202451L
(F3.3896159521835334
L4202472L
tp902
sL10333940L
(F1.0
L10333944L
tp903
sL4212592L
(F1.0
L4212611L
tp904
sL10333944L
(F1.0
L10333948L
tp905
sL4217618L
(F1210.181818181818
L4217629L
tp906
sL4210427L
(F5.24475312611647
L4210442L
tp907
sL10333948L
(F1.0
L10333952L
tp908
sL4200160L
(F0.8888888888888888
L4200160L
tp909
sL4220670L
(F0.6164265021257384
L4220678L
tp910
sL4209496L
(F0.1523279258123899
L4209503L
tp911
sL10333952L
(F1.0
L10333956L
tp912
sL4213376L
(F1.0
L4213376L
tp913
sL4209963L
(F1.8078041629558403
L4209971L
tp914
sL10333956L
(F1.0
L10333960L
tp915
sL4202245L
(F1.170746140258006
L4202255L
tp916
sL4220678L
(F0.5253470997531022
L4220690L
tp917
sL4216583L
(F2.0
L4216600L
tp918
sL10333960L
(F1.0
L10333964L
tp919
sL4208393L
(F2.0
L4208398L
tp920
sL4210442L
(F2.622376563058235
L4210451L
tp921
sL4218635L
(F2.6666666666666665
L4218647L
tp922
sL10333964L
(F1.0
L10333968L
tp923
sL4208398L
(F0.9411764705882353
L4208400L
tp924
sL4202255L
(F0.585373070129003
L4202259L
tp925
sL4212496L
(F1.0
L4212511L
tp926
sL4220690L
(F2.909090909090909
L4220706L
tp927
sL4210451L
(F5.24475312611647
L4210469L
tp928
sL10333972L
(F1.0
L10333976L
tp929
sL4203707L
(F1.9458432304038005
L4203719L
tp930
sL4204208L
(F1.0
L4204230L
tp931
sL4218647L
(F5.333333333333333
L4218671L
tp932
sL10333976L
(F1.0
L10333980L
tp933
sL10333828L
(F1.0
L10333832L
tp934
sL4204314L
(F2.0
L4204323L
tp935
sL10333980L
(F1.0
L10333984L
tp936
sL4214560L
(F20.0
L4214622L
tp937
sL4203824L
(F1.0
L4203824L
tp938
sL4220706L
(F8.0
L4220722L
tp939
sL4204323L
(F4.0
L4204357L
tp940
sL10333988L
(F1.0
L10333992L
tp941
sL4221302L
(F1.0
L4221324L
tp942
sL10333992L
(F1.0
L10333996L
tp943
sL4210800L
(F14.0
L4210802L
tp944
sL4202282L
(F0.23626946624377085
L4202287L
tp945
sL10333996L
(F1.0
L10334000L
tp946
sL4218671L
(F10.666666666666666
L4218680L
tp947
sL4216624L
(F1.0
L4216663L
tp948
sL4220552L
(F2.4820481745190124
L4220561L
tp949
sL4220722L
(F16.0
L4220731L
tp950
sL10334004L
(F1.0
L10334008L
tp951
sL10334008L
(F1.0
L10334012L
tp952
sL4202299L
(F0.25676311568272914
L4202338L
tp953
sL10334012L
(F1.0
L10334016L
tp954
sL4210494L
(F1.1346442797482648
L4210499L
tp955
sL4208447L
(F8.0
L4208461L
tp956
sL10334016L
(F1.0
L10334020L
tp957
sL4215776L
(F1.0
L4215787L
tp958
sL4210263L
(F61.74320323014804
L4210272L
tp959
sL4210499L
(F2.2692885594965295
L4210503L
tp960
sL10334020L
(F1.0
L10334024L
tp961
sL4220741L
(F2.113519091847265
L4220755L
tp962
sL4212688L
(F1.0
L4212813L
tp963
sL4203968L
(F1.0
L4204005L
tp964
sL10334024L
(F1.0
L10334028L
tp965
sL4218780L
(F2.6666666666666665
L4218800L
tp966
sL4218699L
(F1.2307692307692308
L4218712L
tp967
sL10334028L
(F1.0
L10334032L
tp968
sL4208461L
(F16.0
L4208479L
tp969
sL10334032L
(F1.0
L10334036L
tp970
sL4204369L
(F3.2
L4204377L
tp971
sL4220755L
(F4.22703818369453
L4220766L
tp972
sL10334036L
(F1.0
L10334040L
tp973
sL4216848L
(F4.0
L4216874L
tp974
sL4221440L
(F0.6666666666666666
L4221462L
tp975
sL4216663L
(F2.0
L4216683L
tp976
sL10334040L
(F1.0
L10334044L
tp977
sL4210521L
(F2.622376563058235
L4210526L
tp978
sL10334044L
(F1.0
L10334048L
tp979
sL4220766L
(F2.113519091847265
L4220771L
tp980
sL4207392L
(F1.3333333333333333
L4207410L
tp981
sL4218720L
(F1.0
L4218732L
tp982
sL4202128L
(F2.7766256050672062
L4202137L
tp983
sL4210530L
(F2.622376563058235
L4210539L
tp984
sL4220771L
(F2.8180254557963536
L4220780L
tp985
sL10334052L
(F1.0
L10334056L
tp986
sL4204528L
(F1.3333333333333333
L4204561L
tp987
sL4220561L
(F4.964096349038025
L4220625L
tp988
sL10334056L
(F1.0
L10334060L
tp989
sL4208489L
(F2.0
L4208504L
tp990
sL4216683L
(F1.0
L4216695L
tp991
sL4220780L
(F1.2398032538781687
L4220802L
tp992
sL4205824L
(F12.8
L4205831L
tp993
sL10334064L
(F1.0
L10334068L
tp994
sL4204392L
(F2.909090909090909
L4204401L
tp995
sL10334068L
(F1.0
L10334072L
tp996
sL10334072L
(F1.0
L10334076L
tp997
sL4218745L
(F1.3333333333333333
L4218780L
tp998
sL4206911L
(F2.6666666666666665
L4206933L
tp999
sL10334076L
(F1.0
L10334080L
tp1000
sL4204414L
(F2.909090909090909
L4204423L
tp1001
sL4208416L
(F4.0
L4208447L
tp1002
sL4216704L
(F1.0
L4216727L
tp1003
sL4220802L
(F2.4796065077563374
L4220812L
tp1004
sL10334084L
(F1.0
L10334088L
tp1005
sL4202817L
(F6.390950314496075
L4202837L
tp1006
sL10334088L
(F1.0
L10334092L
tp1007
sL10333816L
(F1.0
L10333820L
tp1008
sL10334092L
(F1.0
L10334096L
tp1009
sL4216600L
(F1.0
L4216612L
tp1010
sL10334096L
(F1.0
L10334100L
tp1011
sL10333848L
(F1.0
L10333852L
tp1012
sL4209576L
(F0.474997385584371
L4209580L
tp1013
sL10334100L
(F1.0
L10334104L
tp1014
sL10333680L
(F1.0
L10333684L
tp1015
sL4216727L
(F2.0
L4216790L
tp1016
sL10334104L
(F1.0
L10334108L
tp1017
sL4202393L
(F1.9226626718765185
L4202408L
tp1018
sL4208538L
(F16.0
L4208568L
tp1019
sL10334108L
(F1.0
L10334112L
tp1020
sL4205280L
(F2.6666666666666665
L4205292L
tp1021
sL4208965L
(F1024.0
L4208992L
tp1022
sL4200352L
(F0.8
L4200352L
tp1023
sL4214768L
(F20.0
L4214845L
tp1024
sL4202416L
(F5.5532512101344125
L4202426L
tp1025
sL10334116L
(F1.0
L10334120L
tp1026
sL4206576L
(F2.6666666666666665
L4206608L
tp1027
sL10333984L
(F1.0
L10333988L
tp1028
sL4214696L
(F20.0
L4214764L
tp1029
sL4217664L
(F1.9934112009583707
L4217673L
tp1030
sL4212651L
(F2.0
L4212656L
tp1031
sL4216818L
(F2.0
L4216823L
tp1032
sL4204462L
(F1.3333333333333333
L4204466L
tp1033
sL4212656L
(F4.0
L4212669L
tp1034
sL4199568L
(F1.0
L4199568L
tp1035
sL4210752L
(F14.0
L4210792L
tp1036
sL4202426L
(F11.106502420268825
L4202431L
tp1037
sL4210564L
(F56.0
L4210602L
tp1038
sL4212669L
(F1.3333333333333333
L4212674L
tp1039
sL4202431L
(F22.21300484053765
L4202440L
tp1040
sL4204480L
(F1.0
L4204490L
tp1041
sL4215456L
(F1.0
L4215572L
tp1042
sL4220866L
(F3.5555555555555554
L4220877L
tp1043
sL4208579L
(F2.0
L4208595L
tp1044
sL4210628L
(F56.0
L4210666L
tp1045
sL4206534L
(F2.0
L4206543L
tp1046
sL4211760L
(F3.1364334036392725
L4211825L
tp1047
sL4202440L
(F44.4260096810753
L4202451L
tp1048
sL4220877L
(F0.8477821814518541
L4220882L
tp1049
sL4206543L
(F4.0
L4206553L
tp1050
sL4200400L
(F1.0
L4200400L
tp1051
sL4220882L
(F4.964096349038025
L4220909L
tp1052
sL4208595L
(F2.0
L4208627L
tp1053
sL4221376L
(F1.0
L4221432L
tp1054
sL4219214L
(F4.0
L4219252L
tp1055
sL4218838L
(F2.6666666666666665
L4218858L
tp1056
sL4206553L
(F1.6
L4206569L
tp1057
sL4220736L
(F4.22703818369453
L4220741L
tp1058
sL4207328L
(F1.0
L4207328L
tp1059
sL4216800L
(F2.0
L4216808L
tp1060
sL4216144L
(F1.0
L4216167L
tp1061
sL4200032L
(F1.0
L4200032L
tp1062
sL4204517L
(F2.0
L4204523L
tp1063
sL4202472L
(F6.779231904367067
L4202492L
tp1064
sL4206569L
(F3.2
L4206576L
tp1065
sL4218858L
(F1.3333333333333333
L4218899L
tp1066
sL4204523L
(F4.0
L4204525L
tp1067
sL4220909L
(F4.22703818369453
L4220922L
tp1068
sL4210672L
(F14.0
L4210712L
tp1069
sL4202896L
(F3.1954751572480373
L4202938L
tp1070
sL4209634L
(F1.0044843049327352
L4209645L
tp1071
sL4216808L
(F1.0
L4216818L
tp1072
sL4216823L
(F1.9393939393939394
L4216828L
tp1073
sL4203860L
(F2.0
L4203870L
tp1074
sL4204192L
(F1.0
L4204204L
tp1075
sL4216828L
(F1.816593886462882
L4216843L
tp1076
sL4206933L
(F1.1428571428571428
L4206950L
tp1077
s.